
prog.exe:     file format pei-x86-64


Disassembly of section .text:

0000000140001000 <__mingw_invalidParameterHandler>:
   140001000:	c3                   	ret
   140001001:	66 66 2e 0f 1f 84 00 	data16 cs nopw 0x0(%rax,%rax,1)
   140001008:	00 00 00 00 
   14000100c:	0f 1f 40 00          	nopl   0x0(%rax)

0000000140001010 <pre_c_init>:
   140001010:	48 83 ec 28          	sub    $0x28,%rsp
   140001014:	48 8b 05 15 34 00 00 	mov    0x3415(%rip),%rax        # 140004430 <.refptr.__mingw_initltsdrot_force>
   14000101b:	31 c9                	xor    %ecx,%ecx
   14000101d:	c7 00 01 00 00 00    	movl   $0x1,(%rax)
   140001023:	48 8b 05 16 34 00 00 	mov    0x3416(%rip),%rax        # 140004440 <.refptr.__mingw_initltsdyn_force>
   14000102a:	c7 00 01 00 00 00    	movl   $0x1,(%rax)
   140001030:	48 8b 05 19 34 00 00 	mov    0x3419(%rip),%rax        # 140004450 <.refptr.__mingw_initltssuo_force>
   140001037:	c7 00 01 00 00 00    	movl   $0x1,(%rax)
   14000103d:	48 8b 05 ac 33 00 00 	mov    0x33ac(%rip),%rax        # 1400043f0 <.refptr.__image_base__>
   140001044:	66 81 38 4d 5a       	cmpw   $0x5a4d,(%rax)
   140001049:	75 0f                	jne    14000105a <pre_c_init+0x4a>
   14000104b:	48 63 50 3c          	movslq 0x3c(%rax),%rdx
   14000104f:	48 01 d0             	add    %rdx,%rax
   140001052:	81 38 50 45 00 00    	cmpl   $0x4550,(%rax)
   140001058:	74 66                	je     1400010c0 <pre_c_init+0xb0>
   14000105a:	48 8b 05 bf 33 00 00 	mov    0x33bf(%rip),%rax        # 140004420 <.refptr.__mingw_app_type>
   140001061:	89 0d a5 5f 00 00    	mov    %ecx,0x5fa5(%rip)        # 14000700c <managedapp>
   140001067:	8b 00                	mov    (%rax),%eax
   140001069:	85 c0                	test   %eax,%eax
   14000106b:	74 43                	je     1400010b0 <pre_c_init+0xa0>
   14000106d:	b9 02 00 00 00       	mov    $0x2,%ecx
   140001072:	e8 59 18 00 00       	call   1400028d0 <__set_app_type>
   140001077:	e8 d4 17 00 00       	call   140002850 <__p__fmode>
   14000107c:	48 8b 15 7d 34 00 00 	mov    0x347d(%rip),%rdx        # 140004500 <.refptr._fmode>
   140001083:	8b 12                	mov    (%rdx),%edx
   140001085:	89 10                	mov    %edx,(%rax)
   140001087:	e8 bc 17 00 00       	call   140002848 <__p__commode>
   14000108c:	48 8b 15 4d 34 00 00 	mov    0x344d(%rip),%rdx        # 1400044e0 <.refptr._commode>
   140001093:	8b 12                	mov    (%rdx),%edx
   140001095:	89 10                	mov    %edx,(%rax)
   140001097:	e8 24 05 00 00       	call   1400015c0 <_setargv>
   14000109c:	48 8b 05 ed 32 00 00 	mov    0x32ed(%rip),%rax        # 140004390 <.refptr._MINGW_INSTALL_DEBUG_MATHERR>
   1400010a3:	83 38 01             	cmpl   $0x1,(%rax)
   1400010a6:	74 50                	je     1400010f8 <pre_c_init+0xe8>
   1400010a8:	31 c0                	xor    %eax,%eax
   1400010aa:	48 83 c4 28          	add    $0x28,%rsp
   1400010ae:	c3                   	ret
   1400010af:	90                   	nop
   1400010b0:	b9 01 00 00 00       	mov    $0x1,%ecx
   1400010b5:	e8 16 18 00 00       	call   1400028d0 <__set_app_type>
   1400010ba:	eb bb                	jmp    140001077 <pre_c_init+0x67>
   1400010bc:	0f 1f 40 00          	nopl   0x0(%rax)
   1400010c0:	0f b7 50 18          	movzwl 0x18(%rax),%edx
   1400010c4:	66 81 fa 0b 01       	cmp    $0x10b,%dx
   1400010c9:	74 45                	je     140001110 <pre_c_init+0x100>
   1400010cb:	66 81 fa 0b 02       	cmp    $0x20b,%dx
   1400010d0:	75 88                	jne    14000105a <pre_c_init+0x4a>
   1400010d2:	83 b8 84 00 00 00 0e 	cmpl   $0xe,0x84(%rax)
   1400010d9:	0f 86 7b ff ff ff    	jbe    14000105a <pre_c_init+0x4a>
   1400010df:	8b 90 f8 00 00 00    	mov    0xf8(%rax),%edx
   1400010e5:	31 c9                	xor    %ecx,%ecx
   1400010e7:	85 d2                	test   %edx,%edx
   1400010e9:	0f 95 c1             	setne  %cl
   1400010ec:	e9 69 ff ff ff       	jmp    14000105a <pre_c_init+0x4a>
   1400010f1:	0f 1f 80 00 00 00 00 	nopl   0x0(%rax)
   1400010f8:	48 8b 0d 21 34 00 00 	mov    0x3421(%rip),%rcx        # 140004520 <.refptr._matherr>
   1400010ff:	e8 2c 0c 00 00       	call   140001d30 <__mingw_setusermatherr>
   140001104:	31 c0                	xor    %eax,%eax
   140001106:	48 83 c4 28          	add    $0x28,%rsp
   14000110a:	c3                   	ret
   14000110b:	0f 1f 44 00 00       	nopl   0x0(%rax,%rax,1)
   140001110:	83 78 74 0e          	cmpl   $0xe,0x74(%rax)
   140001114:	0f 86 40 ff ff ff    	jbe    14000105a <pre_c_init+0x4a>
   14000111a:	44 8b 80 e8 00 00 00 	mov    0xe8(%rax),%r8d
   140001121:	31 c9                	xor    %ecx,%ecx
   140001123:	45 85 c0             	test   %r8d,%r8d
   140001126:	0f 95 c1             	setne  %cl
   140001129:	e9 2c ff ff ff       	jmp    14000105a <pre_c_init+0x4a>
   14000112e:	66 90                	xchg   %ax,%ax

0000000140001130 <pre_cpp_init>:
   140001130:	48 83 ec 38          	sub    $0x38,%rsp
   140001134:	48 8b 05 f5 33 00 00 	mov    0x33f5(%rip),%rax        # 140004530 <.refptr._newmode>
   14000113b:	4c 8d 05 d6 5e 00 00 	lea    0x5ed6(%rip),%r8        # 140007018 <envp>
   140001142:	48 8d 15 d7 5e 00 00 	lea    0x5ed7(%rip),%rdx        # 140007020 <argv>
   140001149:	48 8d 0d d8 5e 00 00 	lea    0x5ed8(%rip),%rcx        # 140007028 <argc>
   140001150:	8b 00                	mov    (%rax),%eax
   140001152:	89 05 ac 5e 00 00    	mov    %eax,0x5eac(%rip)        # 140007004 <startinfo>
   140001158:	48 8b 05 91 33 00 00 	mov    0x3391(%rip),%rax        # 1400044f0 <.refptr._dowildcard>
   14000115f:	44 8b 08             	mov    (%rax),%r9d
   140001162:	48 8d 05 9b 5e 00 00 	lea    0x5e9b(%rip),%rax        # 140007004 <startinfo>
   140001169:	48 89 44 24 20       	mov    %rax,0x20(%rsp)
   14000116e:	e8 8d 14 00 00       	call   140002600 <__getmainargs>
   140001173:	90                   	nop
   140001174:	48 83 c4 38          	add    $0x38,%rsp
   140001178:	c3                   	ret
   140001179:	0f 1f 80 00 00 00 00 	nopl   0x0(%rax)

0000000140001180 <__tmainCRTStartup>:
   140001180:	41 54                	push   %r12
   140001182:	55                   	push   %rbp
   140001183:	57                   	push   %rdi
   140001184:	56                   	push   %rsi
   140001185:	53                   	push   %rbx
   140001186:	48 83 ec 20          	sub    $0x20,%rsp
   14000118a:	48 8b 1d ef 32 00 00 	mov    0x32ef(%rip),%rbx        # 140004480 <.refptr.__native_startup_lock>
   140001191:	31 ff                	xor    %edi,%edi
   140001193:	65 48 8b 04 25 30 00 	mov    %gs:0x30,%rax
   14000119a:	00 00 
   14000119c:	48 8b 2d 59 71 00 00 	mov    0x7159(%rip),%rbp        # 1400082fc <__imp_Sleep>
   1400011a3:	48 8b 70 08          	mov    0x8(%rax),%rsi
   1400011a7:	eb 17                	jmp    1400011c0 <__tmainCRTStartup+0x40>
   1400011a9:	0f 1f 80 00 00 00 00 	nopl   0x0(%rax)
   1400011b0:	48 39 c6             	cmp    %rax,%rsi
   1400011b3:	0f 84 67 01 00 00    	je     140001320 <__tmainCRTStartup+0x1a0>
   1400011b9:	b9 e8 03 00 00       	mov    $0x3e8,%ecx
   1400011be:	ff d5                	call   *%rbp
   1400011c0:	48 89 f8             	mov    %rdi,%rax
   1400011c3:	f0 48 0f b1 33       	lock cmpxchg %rsi,(%rbx)
   1400011c8:	48 85 c0             	test   %rax,%rax
   1400011cb:	75 e3                	jne    1400011b0 <__tmainCRTStartup+0x30>
   1400011cd:	48 8b 35 bc 32 00 00 	mov    0x32bc(%rip),%rsi        # 140004490 <.refptr.__native_startup_state>
   1400011d4:	31 ff                	xor    %edi,%edi
   1400011d6:	8b 06                	mov    (%rsi),%eax
   1400011d8:	83 f8 01             	cmp    $0x1,%eax
   1400011db:	0f 84 56 01 00 00    	je     140001337 <__tmainCRTStartup+0x1b7>
   1400011e1:	8b 06                	mov    (%rsi),%eax
   1400011e3:	85 c0                	test   %eax,%eax
   1400011e5:	0f 84 b5 01 00 00    	je     1400013a0 <__tmainCRTStartup+0x220>
   1400011eb:	c7 05 13 5e 00 00 01 	movl   $0x1,0x5e13(%rip)        # 140007008 <has_cctor>
   1400011f2:	00 00 00 
   1400011f5:	8b 06                	mov    (%rsi),%eax
   1400011f7:	83 f8 01             	cmp    $0x1,%eax
   1400011fa:	0f 84 4c 01 00 00    	je     14000134c <__tmainCRTStartup+0x1cc>
   140001200:	85 ff                	test   %edi,%edi
   140001202:	0f 84 65 01 00 00    	je     14000136d <__tmainCRTStartup+0x1ed>
   140001208:	48 8b 05 d1 31 00 00 	mov    0x31d1(%rip),%rax        # 1400043e0 <.refptr.__dyn_tls_init_callback>
   14000120f:	48 8b 00             	mov    (%rax),%rax
   140001212:	48 85 c0             	test   %rax,%rax
   140001215:	74 0c                	je     140001223 <__tmainCRTStartup+0xa3>
   140001217:	45 31 c0             	xor    %r8d,%r8d
   14000121a:	ba 02 00 00 00       	mov    $0x2,%edx
   14000121f:	31 c9                	xor    %ecx,%ecx
   140001221:	ff d0                	call   *%rax
   140001223:	e8 68 07 00 00       	call   140001990 <_pei386_runtime_relocator>
   140001228:	48 8b 0d e1 32 00 00 	mov    0x32e1(%rip),%rcx        # 140004510 <.refptr._gnu_exception_handler>
   14000122f:	ff 15 bf 70 00 00    	call   *0x70bf(%rip)        # 1400082f4 <__imp_SetUnhandledExceptionFilter>
   140001235:	48 8b 15 34 32 00 00 	mov    0x3234(%rip),%rdx        # 140004470 <.refptr.__mingw_oldexcpt_handler>
   14000123c:	48 8d 0d bd fd ff ff 	lea    -0x243(%rip),%rcx        # 140001000 <__mingw_invalidParameterHandler>
   140001243:	48 89 02             	mov    %rax,(%rdx)
   140001246:	e8 8d 16 00 00       	call   1400028d8 <_set_invalid_parameter_handler>
   14000124b:	e8 50 05 00 00       	call   1400017a0 <_fpreset>
   140001250:	8b 1d d2 5d 00 00    	mov    0x5dd2(%rip),%ebx        # 140007028 <argc>
   140001256:	8d 7b 01             	lea    0x1(%rbx),%edi
   140001259:	48 63 ff             	movslq %edi,%rdi
   14000125c:	48 c1 e7 03          	shl    $0x3,%rdi
   140001260:	48 89 f9             	mov    %rdi,%rcx
   140001263:	e8 d0 16 00 00       	call   140002938 <malloc>
   140001268:	85 db                	test   %ebx,%ebx
   14000126a:	48 8b 2d af 5d 00 00 	mov    0x5daf(%rip),%rbp        # 140007020 <argv>
   140001271:	49 89 c4             	mov    %rax,%r12
   140001274:	0f 8e 46 01 00 00    	jle    1400013c0 <__tmainCRTStartup+0x240>
   14000127a:	48 83 ef 08          	sub    $0x8,%rdi
   14000127e:	31 db                	xor    %ebx,%ebx
   140001280:	48 8b 4c 1d 00       	mov    0x0(%rbp,%rbx,1),%rcx
   140001285:	e8 a6 15 00 00       	call   140002830 <strlen>
   14000128a:	48 8d 70 01          	lea    0x1(%rax),%rsi
   14000128e:	48 89 f1             	mov    %rsi,%rcx
   140001291:	e8 a2 16 00 00       	call   140002938 <malloc>
   140001296:	49 89 f0             	mov    %rsi,%r8
   140001299:	49 89 04 1c          	mov    %rax,(%r12,%rbx,1)
   14000129d:	48 8b 54 1d 00       	mov    0x0(%rbp,%rbx,1),%rdx
   1400012a2:	48 89 c1             	mov    %rax,%rcx
   1400012a5:	48 83 c3 08          	add    $0x8,%rbx
   1400012a9:	e8 5a 16 00 00       	call   140002908 <memcpy>
   1400012ae:	48 39 df             	cmp    %rbx,%rdi
   1400012b1:	75 cd                	jne    140001280 <__tmainCRTStartup+0x100>
   1400012b3:	4c 01 e7             	add    %r12,%rdi
   1400012b6:	48 c7 07 00 00 00 00 	movq   $0x0,(%rdi)
   1400012bd:	4c 89 25 5c 5d 00 00 	mov    %r12,0x5d5c(%rip)        # 140007020 <argv>
   1400012c4:	e8 d7 02 00 00       	call   1400015a0 <__main>
   1400012c9:	48 8b 05 30 31 00 00 	mov    0x3130(%rip),%rax        # 140004400 <.refptr.__imp___initenv>
   1400012d0:	4c 8b 05 41 5d 00 00 	mov    0x5d41(%rip),%r8        # 140007018 <envp>
   1400012d7:	8b 0d 4b 5d 00 00    	mov    0x5d4b(%rip),%ecx        # 140007028 <argc>
   1400012dd:	48 8b 00             	mov    (%rax),%rax
   1400012e0:	4c 89 00             	mov    %r8,(%rax)
   1400012e3:	48 8b 15 36 5d 00 00 	mov    0x5d36(%rip),%rdx        # 140007020 <argv>
   1400012ea:	e8 61 01 00 00       	call   140001450 <main>
   1400012ef:	8b 0d 17 5d 00 00    	mov    0x5d17(%rip),%ecx        # 14000700c <managedapp>
   1400012f5:	89 05 15 5d 00 00    	mov    %eax,0x5d15(%rip)        # 140007010 <mainret>
   1400012fb:	85 c9                	test   %ecx,%ecx
   1400012fd:	0f 84 c5 00 00 00    	je     1400013c8 <__tmainCRTStartup+0x248>
   140001303:	8b 15 ff 5c 00 00    	mov    0x5cff(%rip),%edx        # 140007008 <has_cctor>
   140001309:	85 d2                	test   %edx,%edx
   14000130b:	74 73                	je     140001380 <__tmainCRTStartup+0x200>
   14000130d:	48 83 c4 20          	add    $0x20,%rsp
   140001311:	5b                   	pop    %rbx
   140001312:	5e                   	pop    %rsi
   140001313:	5f                   	pop    %rdi
   140001314:	5d                   	pop    %rbp
   140001315:	41 5c                	pop    %r12
   140001317:	c3                   	ret
   140001318:	0f 1f 84 00 00 00 00 	nopl   0x0(%rax,%rax,1)
   14000131f:	00 
   140001320:	48 8b 35 69 31 00 00 	mov    0x3169(%rip),%rsi        # 140004490 <.refptr.__native_startup_state>
   140001327:	bf 01 00 00 00       	mov    $0x1,%edi
   14000132c:	8b 06                	mov    (%rsi),%eax
   14000132e:	83 f8 01             	cmp    $0x1,%eax
   140001331:	0f 85 aa fe ff ff    	jne    1400011e1 <__tmainCRTStartup+0x61>
   140001337:	b9 1f 00 00 00       	mov    $0x1f,%ecx
   14000133c:	e8 df 13 00 00       	call   140002720 <_amsg_exit>
   140001341:	8b 06                	mov    (%rsi),%eax
   140001343:	83 f8 01             	cmp    $0x1,%eax
   140001346:	0f 85 b4 fe ff ff    	jne    140001200 <__tmainCRTStartup+0x80>
   14000134c:	48 8b 15 5d 31 00 00 	mov    0x315d(%rip),%rdx        # 1400044b0 <.refptr.__xc_z>
   140001353:	48 8b 0d 46 31 00 00 	mov    0x3146(%rip),%rcx        # 1400044a0 <.refptr.__xc_a>
   14000135a:	e8 69 15 00 00       	call   1400028c8 <_initterm>
   14000135f:	85 ff                	test   %edi,%edi
   140001361:	c7 06 02 00 00 00    	movl   $0x2,(%rsi)
   140001367:	0f 85 9b fe ff ff    	jne    140001208 <__tmainCRTStartup+0x88>
   14000136d:	31 c0                	xor    %eax,%eax
   14000136f:	48 87 03             	xchg   %rax,(%rbx)
   140001372:	e9 91 fe ff ff       	jmp    140001208 <__tmainCRTStartup+0x88>
   140001377:	66 0f 1f 84 00 00 00 	nopw   0x0(%rax,%rax,1)
   14000137e:	00 00 
   140001380:	e8 03 15 00 00       	call   140002888 <_cexit>
   140001385:	8b 05 85 5c 00 00    	mov    0x5c85(%rip),%eax        # 140007010 <mainret>
   14000138b:	48 83 c4 20          	add    $0x20,%rsp
   14000138f:	5b                   	pop    %rbx
   140001390:	5e                   	pop    %rsi
   140001391:	5f                   	pop    %rdi
   140001392:	5d                   	pop    %rbp
   140001393:	41 5c                	pop    %r12
   140001395:	c3                   	ret
   140001396:	66 2e 0f 1f 84 00 00 	cs nopw 0x0(%rax,%rax,1)
   14000139d:	00 00 00 
   1400013a0:	48 8b 15 29 31 00 00 	mov    0x3129(%rip),%rdx        # 1400044d0 <.refptr.__xi_z>
   1400013a7:	c7 06 01 00 00 00    	movl   $0x1,(%rsi)
   1400013ad:	48 8b 0d 0c 31 00 00 	mov    0x310c(%rip),%rcx        # 1400044c0 <.refptr.__xi_a>
   1400013b4:	e8 0f 15 00 00       	call   1400028c8 <_initterm>
   1400013b9:	e9 37 fe ff ff       	jmp    1400011f5 <__tmainCRTStartup+0x75>
   1400013be:	66 90                	xchg   %ax,%ax
   1400013c0:	48 89 c7             	mov    %rax,%rdi
   1400013c3:	e9 ee fe ff ff       	jmp    1400012b6 <__tmainCRTStartup+0x136>
   1400013c8:	89 c1                	mov    %eax,%ecx
   1400013ca:	e8 19 15 00 00       	call   1400028e8 <exit>
   1400013cf:	90                   	nop

00000001400013d0 <WinMainCRTStartup>:
   1400013d0:	48 83 ec 28          	sub    $0x28,%rsp

00000001400013d4 <.l_startw>:
   1400013d4:	48 8b 05 45 30 00 00 	mov    0x3045(%rip),%rax        # 140004420 <.refptr.__mingw_app_type>
   1400013db:	c7 00 01 00 00 00    	movl   $0x1,(%rax)
   1400013e1:	e8 9a fd ff ff       	call   140001180 <__tmainCRTStartup>
   1400013e6:	90                   	nop

00000001400013e7 <.l_endw>:
   1400013e7:	90                   	nop
   1400013e8:	48 83 c4 28          	add    $0x28,%rsp
   1400013ec:	c3                   	ret
   1400013ed:	0f 1f 00             	nopl   (%rax)

00000001400013f0 <mainCRTStartup>:
   1400013f0:	48 83 ec 28          	sub    $0x28,%rsp

00000001400013f4 <.l_start>:
   1400013f4:	48 8b 05 25 30 00 00 	mov    0x3025(%rip),%rax        # 140004420 <.refptr.__mingw_app_type>
   1400013fb:	c7 00 00 00 00 00    	movl   $0x0,(%rax)
   140001401:	e8 7a fd ff ff       	call   140001180 <__tmainCRTStartup>
   140001406:	90                   	nop

0000000140001407 <.l_end>:
   140001407:	90                   	nop
   140001408:	48 83 c4 28          	add    $0x28,%rsp
   14000140c:	c3                   	ret
   14000140d:	0f 1f 00             	nopl   (%rax)

0000000140001410 <atexit>:
   140001410:	48 83 ec 28          	sub    $0x28,%rsp
   140001414:	e8 c7 12 00 00       	call   1400026e0 <_onexit>
   140001419:	48 83 f8 01          	cmp    $0x1,%rax
   14000141d:	19 c0                	sbb    %eax,%eax
   14000141f:	48 83 c4 28          	add    $0x28,%rsp
   140001423:	c3                   	ret
   140001424:	90                   	nop
   140001425:	90                   	nop
   140001426:	90                   	nop
   140001427:	90                   	nop
   140001428:	90                   	nop
   140001429:	90                   	nop
   14000142a:	90                   	nop
   14000142b:	90                   	nop
   14000142c:	90                   	nop
   14000142d:	90                   	nop
   14000142e:	90                   	nop
   14000142f:	90                   	nop

0000000140001430 <__gcc_register_frame>:
   140001430:	48 8d 0d 09 00 00 00 	lea    0x9(%rip),%rcx        # 140001440 <__gcc_deregister_frame>
   140001437:	e9 d4 ff ff ff       	jmp    140001410 <atexit>
   14000143c:	0f 1f 40 00          	nopl   0x0(%rax)

0000000140001440 <__gcc_deregister_frame>:
   140001440:	c3                   	ret
   140001441:	90                   	nop
   140001442:	90                   	nop
   140001443:	90                   	nop
   140001444:	90                   	nop
   140001445:	90                   	nop
   140001446:	90                   	nop
   140001447:	90                   	nop
   140001448:	90                   	nop
   140001449:	90                   	nop
   14000144a:	90                   	nop
   14000144b:	90                   	nop
   14000144c:	90                   	nop
   14000144d:	90                   	nop
   14000144e:	90                   	nop
   14000144f:	90                   	nop

0000000140001450 <main>:
   140001450:	48 83 ec 38          	sub    $0x38,%rsp
   140001454:	e8 47 01 00 00       	call   1400015a0 <__main>
   140001459:	4c 8d 44 24 28       	lea    0x28(%rsp),%r8
   14000145e:	ba 03 00 00 00       	mov    $0x3,%edx
   140001463:	b9 02 00 00 00       	mov    $0x2,%ecx
   140001468:	e8 43 00 00 00       	call   1400014b0 <multstore>
   14000146d:	48 8d 15 8c 2b 00 00 	lea    0x2b8c(%rip),%rdx        # 140004000 <.rdata>
   140001474:	48 8b 0d 25 2f 00 00 	mov    0x2f25(%rip),%rcx        # 1400043a0 <__fu0__ZSt4cout>
   14000147b:	e8 50 00 00 00       	call   1400014d0 <_ZStlsISt11char_traitsIcEERSt13basic_ostreamIcT_ES5_PKc>
   140001480:	48 89 c1             	mov    %rax,%rcx
   140001483:	48 8b 54 24 28       	mov    0x28(%rsp),%rdx
   140001488:	e8 53 00 00 00       	call   1400014e0 <_ZNSo9_M_insertIyEERSoT_>
   14000148d:	48 89 c1             	mov    %rax,%rcx
   140001490:	e8 43 00 00 00       	call   1400014d8 <_ZSt4endlIcSt11char_traitsIcEERSt13basic_ostreamIT_T0_ES6_>
   140001495:	b8 00 00 00 00       	mov    $0x0,%eax
   14000149a:	48 83 c4 38          	add    $0x38,%rsp
   14000149e:	c3                   	ret

000000014000149f <mult2>:
   14000149f:	48 89 c8             	mov    %rcx,%rax
   1400014a2:	48 0f af c2          	imul   %rdx,%rax
   1400014a6:	c3                   	ret
   1400014a7:	90                   	nop
   1400014a8:	90                   	nop
   1400014a9:	90                   	nop
   1400014aa:	90                   	nop
   1400014ab:	90                   	nop
   1400014ac:	90                   	nop
   1400014ad:	90                   	nop
   1400014ae:	90                   	nop
   1400014af:	90                   	nop

00000001400014b0 <multstore>:
   1400014b0:	53                   	push   %rbx
   1400014b1:	48 83 ec 20          	sub    $0x20,%rsp
   1400014b5:	4c 89 c3             	mov    %r8,%rbx
   1400014b8:	e8 e2 ff ff ff       	call   14000149f <mult2>
   1400014bd:	48 89 03             	mov    %rax,(%rbx)
   1400014c0:	48 83 c4 20          	add    $0x20,%rsp
   1400014c4:	5b                   	pop    %rbx
   1400014c5:	c3                   	ret
   1400014c6:	90                   	nop
   1400014c7:	90                   	nop
   1400014c8:	90                   	nop
   1400014c9:	90                   	nop
   1400014ca:	90                   	nop
   1400014cb:	90                   	nop
   1400014cc:	90                   	nop
   1400014cd:	90                   	nop
   1400014ce:	90                   	nop
   1400014cf:	90                   	nop

00000001400014d0 <_ZStlsISt11char_traitsIcEERSt13basic_ostreamIcT_ES5_PKc>:
   1400014d0:	ff 25 d6 6f 00 00    	jmp    *0x6fd6(%rip)        # 1400084ac <__imp__ZStlsISt11char_traitsIcEERSt13basic_ostreamIcT_ES5_PKc>
   1400014d6:	90                   	nop
   1400014d7:	90                   	nop

00000001400014d8 <_ZSt4endlIcSt11char_traitsIcEERSt13basic_ostreamIT_T0_ES6_>:
   1400014d8:	ff 25 c6 6f 00 00    	jmp    *0x6fc6(%rip)        # 1400084a4 <__imp__ZSt4endlIcSt11char_traitsIcEERSt13basic_ostreamIT_T0_ES6_>
   1400014de:	90                   	nop
   1400014df:	90                   	nop

00000001400014e0 <_ZNSo9_M_insertIyEERSoT_>:
   1400014e0:	ff 25 ae 6f 00 00    	jmp    *0x6fae(%rip)        # 140008494 <__imp__ZNSo9_M_insertIyEERSoT_>
   1400014e6:	90                   	nop
   1400014e7:	90                   	nop
   1400014e8:	0f 1f 84 00 00 00 00 	nopl   0x0(%rax,%rax,1)
   1400014ef:	00 

00000001400014f0 <__do_global_dtors>:
   1400014f0:	48 83 ec 28          	sub    $0x28,%rsp
   1400014f4:	48 8b 05 05 1b 00 00 	mov    0x1b05(%rip),%rax        # 140003000 <__data_start__>
   1400014fb:	48 8b 00             	mov    (%rax),%rax
   1400014fe:	48 85 c0             	test   %rax,%rax
   140001501:	74 22                	je     140001525 <__do_global_dtors+0x35>
   140001503:	0f 1f 44 00 00       	nopl   0x0(%rax,%rax,1)
   140001508:	ff d0                	call   *%rax
   14000150a:	48 8b 05 ef 1a 00 00 	mov    0x1aef(%rip),%rax        # 140003000 <__data_start__>
   140001511:	48 8d 50 08          	lea    0x8(%rax),%rdx
   140001515:	48 8b 40 08          	mov    0x8(%rax),%rax
   140001519:	48 89 15 e0 1a 00 00 	mov    %rdx,0x1ae0(%rip)        # 140003000 <__data_start__>
   140001520:	48 85 c0             	test   %rax,%rax
   140001523:	75 e3                	jne    140001508 <__do_global_dtors+0x18>
   140001525:	48 83 c4 28          	add    $0x28,%rsp
   140001529:	c3                   	ret
   14000152a:	66 0f 1f 44 00 00    	nopw   0x0(%rax,%rax,1)

0000000140001530 <__do_global_ctors>:
   140001530:	56                   	push   %rsi
   140001531:	53                   	push   %rbx
   140001532:	48 83 ec 28          	sub    $0x28,%rsp
   140001536:	48 8b 15 73 2e 00 00 	mov    0x2e73(%rip),%rdx        # 1400043b0 <.refptr.__CTOR_LIST__>
   14000153d:	48 8b 02             	mov    (%rdx),%rax
   140001540:	83 f8 ff             	cmp    $0xffffffff,%eax
   140001543:	89 c1                	mov    %eax,%ecx
   140001545:	74 39                	je     140001580 <__do_global_ctors+0x50>
   140001547:	85 c9                	test   %ecx,%ecx
   140001549:	74 20                	je     14000156b <__do_global_ctors+0x3b>
   14000154b:	89 c8                	mov    %ecx,%eax
   14000154d:	83 e9 01             	sub    $0x1,%ecx
   140001550:	48 8d 1c c2          	lea    (%rdx,%rax,8),%rbx
   140001554:	48 29 c8             	sub    %rcx,%rax
   140001557:	48 8d 74 c2 f8       	lea    -0x8(%rdx,%rax,8),%rsi
   14000155c:	0f 1f 40 00          	nopl   0x0(%rax)
   140001560:	ff 13                	call   *(%rbx)
   140001562:	48 83 eb 08          	sub    $0x8,%rbx
   140001566:	48 39 f3             	cmp    %rsi,%rbx
   140001569:	75 f5                	jne    140001560 <__do_global_ctors+0x30>
   14000156b:	48 8d 0d 7e ff ff ff 	lea    -0x82(%rip),%rcx        # 1400014f0 <__do_global_dtors>
   140001572:	48 83 c4 28          	add    $0x28,%rsp
   140001576:	5b                   	pop    %rbx
   140001577:	5e                   	pop    %rsi
   140001578:	e9 93 fe ff ff       	jmp    140001410 <atexit>
   14000157d:	0f 1f 00             	nopl   (%rax)
   140001580:	31 c0                	xor    %eax,%eax
   140001582:	66 0f 1f 44 00 00    	nopw   0x0(%rax,%rax,1)
   140001588:	44 8d 40 01          	lea    0x1(%rax),%r8d
   14000158c:	89 c1                	mov    %eax,%ecx
   14000158e:	4a 83 3c c2 00       	cmpq   $0x0,(%rdx,%r8,8)
   140001593:	4c 89 c0             	mov    %r8,%rax
   140001596:	75 f0                	jne    140001588 <__do_global_ctors+0x58>
   140001598:	eb ad                	jmp    140001547 <__do_global_ctors+0x17>
   14000159a:	66 0f 1f 44 00 00    	nopw   0x0(%rax,%rax,1)

00000001400015a0 <__main>:
   1400015a0:	8b 05 8a 5a 00 00    	mov    0x5a8a(%rip),%eax        # 140007030 <initialized>
   1400015a6:	85 c0                	test   %eax,%eax
   1400015a8:	74 06                	je     1400015b0 <__main+0x10>
   1400015aa:	c3                   	ret
   1400015ab:	0f 1f 44 00 00       	nopl   0x0(%rax,%rax,1)
   1400015b0:	c7 05 76 5a 00 00 01 	movl   $0x1,0x5a76(%rip)        # 140007030 <initialized>
   1400015b7:	00 00 00 
   1400015ba:	e9 71 ff ff ff       	jmp    140001530 <__do_global_ctors>
   1400015bf:	90                   	nop

00000001400015c0 <_setargv>:
   1400015c0:	31 c0                	xor    %eax,%eax
   1400015c2:	c3                   	ret
   1400015c3:	90                   	nop
   1400015c4:	90                   	nop
   1400015c5:	90                   	nop
   1400015c6:	90                   	nop
   1400015c7:	90                   	nop
   1400015c8:	90                   	nop
   1400015c9:	90                   	nop
   1400015ca:	90                   	nop
   1400015cb:	90                   	nop
   1400015cc:	90                   	nop
   1400015cd:	90                   	nop
   1400015ce:	90                   	nop
   1400015cf:	90                   	nop

00000001400015d0 <__dyn_tls_dtor>:
   1400015d0:	48 83 ec 28          	sub    $0x28,%rsp
   1400015d4:	83 fa 03             	cmp    $0x3,%edx
   1400015d7:	74 17                	je     1400015f0 <__dyn_tls_dtor+0x20>
   1400015d9:	85 d2                	test   %edx,%edx
   1400015db:	74 13                	je     1400015f0 <__dyn_tls_dtor+0x20>
   1400015dd:	b8 01 00 00 00       	mov    $0x1,%eax
   1400015e2:	48 83 c4 28          	add    $0x28,%rsp
   1400015e6:	c3                   	ret
   1400015e7:	66 0f 1f 84 00 00 00 	nopw   0x0(%rax,%rax,1)
   1400015ee:	00 00 
   1400015f0:	e8 5b 0a 00 00       	call   140002050 <__mingw_TLScallback>
   1400015f5:	b8 01 00 00 00       	mov    $0x1,%eax
   1400015fa:	48 83 c4 28          	add    $0x28,%rsp
   1400015fe:	c3                   	ret
   1400015ff:	90                   	nop

0000000140001600 <__dyn_tls_init>:
   140001600:	56                   	push   %rsi
   140001601:	53                   	push   %rbx
   140001602:	48 83 ec 28          	sub    $0x28,%rsp
   140001606:	48 8b 05 73 2d 00 00 	mov    0x2d73(%rip),%rax        # 140004380 <.refptr._CRT_MT>
   14000160d:	83 38 02             	cmpl   $0x2,(%rax)
   140001610:	74 06                	je     140001618 <__dyn_tls_init+0x18>
   140001612:	c7 00 02 00 00 00    	movl   $0x2,(%rax)
   140001618:	83 fa 02             	cmp    $0x2,%edx
   14000161b:	74 13                	je     140001630 <__dyn_tls_init+0x30>
   14000161d:	83 fa 01             	cmp    $0x1,%edx
   140001620:	74 4e                	je     140001670 <__dyn_tls_init+0x70>
   140001622:	b8 01 00 00 00       	mov    $0x1,%eax
   140001627:	48 83 c4 28          	add    $0x28,%rsp
   14000162b:	5b                   	pop    %rbx
   14000162c:	5e                   	pop    %rsi
   14000162d:	c3                   	ret
   14000162e:	66 90                	xchg   %ax,%ax
   140001630:	48 8d 1d 21 7a 00 00 	lea    0x7a21(%rip),%rbx        # 140009058 <__xd_z>
   140001637:	48 8d 35 1a 7a 00 00 	lea    0x7a1a(%rip),%rsi        # 140009058 <__xd_z>
   14000163e:	48 39 de             	cmp    %rbx,%rsi
   140001641:	74 df                	je     140001622 <__dyn_tls_init+0x22>
   140001643:	0f 1f 44 00 00       	nopl   0x0(%rax,%rax,1)
   140001648:	48 8b 03             	mov    (%rbx),%rax
   14000164b:	48 85 c0             	test   %rax,%rax
   14000164e:	74 02                	je     140001652 <__dyn_tls_init+0x52>
   140001650:	ff d0                	call   *%rax
   140001652:	48 83 c3 08          	add    $0x8,%rbx
   140001656:	48 39 de             	cmp    %rbx,%rsi
   140001659:	75 ed                	jne    140001648 <__dyn_tls_init+0x48>
   14000165b:	b8 01 00 00 00       	mov    $0x1,%eax
   140001660:	48 83 c4 28          	add    $0x28,%rsp
   140001664:	5b                   	pop    %rbx
   140001665:	5e                   	pop    %rsi
   140001666:	c3                   	ret
   140001667:	66 0f 1f 84 00 00 00 	nopw   0x0(%rax,%rax,1)
   14000166e:	00 00 
   140001670:	e8 db 09 00 00       	call   140002050 <__mingw_TLScallback>
   140001675:	b8 01 00 00 00       	mov    $0x1,%eax
   14000167a:	48 83 c4 28          	add    $0x28,%rsp
   14000167e:	5b                   	pop    %rbx
   14000167f:	5e                   	pop    %rsi
   140001680:	c3                   	ret
   140001681:	66 66 2e 0f 1f 84 00 	data16 cs nopw 0x0(%rax,%rax,1)
   140001688:	00 00 00 00 
   14000168c:	0f 1f 40 00          	nopl   0x0(%rax)

0000000140001690 <__tlregdtor>:
   140001690:	31 c0                	xor    %eax,%eax
   140001692:	c3                   	ret
   140001693:	90                   	nop
   140001694:	90                   	nop
   140001695:	90                   	nop
   140001696:	90                   	nop
   140001697:	90                   	nop
   140001698:	90                   	nop
   140001699:	90                   	nop
   14000169a:	90                   	nop
   14000169b:	90                   	nop
   14000169c:	90                   	nop
   14000169d:	90                   	nop
   14000169e:	90                   	nop
   14000169f:	90                   	nop

00000001400016a0 <_matherr>:
   1400016a0:	56                   	push   %rsi
   1400016a1:	53                   	push   %rbx
   1400016a2:	48 83 ec 78          	sub    $0x78,%rsp
   1400016a6:	0f 29 74 24 40       	movaps %xmm6,0x40(%rsp)
   1400016ab:	0f 29 7c 24 50       	movaps %xmm7,0x50(%rsp)
   1400016b0:	44 0f 29 44 24 60    	movaps %xmm8,0x60(%rsp)
   1400016b6:	83 39 06             	cmpl   $0x6,(%rcx)
   1400016b9:	0f 87 cd 00 00 00    	ja     14000178c <_matherr+0xec>
   1400016bf:	8b 01                	mov    (%rcx),%eax
   1400016c1:	48 8d 15 dc 2a 00 00 	lea    0x2adc(%rip),%rdx        # 1400041a4 <.rdata+0x124>
   1400016c8:	48 63 04 82          	movslq (%rdx,%rax,4),%rax
   1400016cc:	48 01 d0             	add    %rdx,%rax
   1400016cf:	ff e0                	jmp    *%rax
   1400016d1:	0f 1f 80 00 00 00 00 	nopl   0x0(%rax)
   1400016d8:	48 8d 1d c0 29 00 00 	lea    0x29c0(%rip),%rbx        # 14000409f <.rdata+0x1f>
   1400016df:	48 8b 71 08          	mov    0x8(%rcx),%rsi
   1400016e3:	f2 44 0f 10 41 20    	movsd  0x20(%rcx),%xmm8
   1400016e9:	f2 0f 10 79 18       	movsd  0x18(%rcx),%xmm7
   1400016ee:	f2 0f 10 71 10       	movsd  0x10(%rcx),%xmm6
   1400016f3:	b9 02 00 00 00       	mov    $0x2,%ecx
   1400016f8:	e8 43 11 00 00       	call   140002840 <__acrt_iob_func>
   1400016fd:	f2 44 0f 11 44 24 30 	movsd  %xmm8,0x30(%rsp)
   140001704:	49 89 f1             	mov    %rsi,%r9
   140001707:	49 89 d8             	mov    %rbx,%r8
   14000170a:	f2 0f 11 7c 24 28    	movsd  %xmm7,0x28(%rsp)
   140001710:	48 89 c1             	mov    %rax,%rcx
   140001713:	f2 0f 11 74 24 20    	movsd  %xmm6,0x20(%rsp)
   140001719:	48 8d 15 58 2a 00 00 	lea    0x2a58(%rip),%rdx        # 140004178 <.rdata+0xf8>
   140001720:	e8 8b 0e 00 00       	call   1400025b0 <fprintf>
   140001725:	90                   	nop
   140001726:	0f 28 74 24 40       	movaps 0x40(%rsp),%xmm6
   14000172b:	31 c0                	xor    %eax,%eax
   14000172d:	0f 28 7c 24 50       	movaps 0x50(%rsp),%xmm7
   140001732:	44 0f 28 44 24 60    	movaps 0x60(%rsp),%xmm8
   140001738:	48 83 c4 78          	add    $0x78,%rsp
   14000173c:	5b                   	pop    %rbx
   14000173d:	5e                   	pop    %rsi
   14000173e:	c3                   	ret
   14000173f:	90                   	nop
   140001740:	48 8d 1d 39 29 00 00 	lea    0x2939(%rip),%rbx        # 140004080 <.rdata>
   140001747:	eb 96                	jmp    1400016df <_matherr+0x3f>
   140001749:	0f 1f 80 00 00 00 00 	nopl   0x0(%rax)
   140001750:	48 8d 1d 89 29 00 00 	lea    0x2989(%rip),%rbx        # 1400040e0 <.rdata+0x60>
   140001757:	eb 86                	jmp    1400016df <_matherr+0x3f>
   140001759:	0f 1f 80 00 00 00 00 	nopl   0x0(%rax)
   140001760:	48 8d 1d 59 29 00 00 	lea    0x2959(%rip),%rbx        # 1400040c0 <.rdata+0x40>
   140001767:	e9 73 ff ff ff       	jmp    1400016df <_matherr+0x3f>
   14000176c:	0f 1f 40 00          	nopl   0x0(%rax)
   140001770:	48 8d 1d b9 29 00 00 	lea    0x29b9(%rip),%rbx        # 140004130 <.rdata+0xb0>
   140001777:	e9 63 ff ff ff       	jmp    1400016df <_matherr+0x3f>
   14000177c:	0f 1f 40 00          	nopl   0x0(%rax)
   140001780:	48 8d 1d 81 29 00 00 	lea    0x2981(%rip),%rbx        # 140004108 <.rdata+0x88>
   140001787:	e9 53 ff ff ff       	jmp    1400016df <_matherr+0x3f>
   14000178c:	48 8d 1d d3 29 00 00 	lea    0x29d3(%rip),%rbx        # 140004166 <.rdata+0xe6>
   140001793:	e9 47 ff ff ff       	jmp    1400016df <_matherr+0x3f>
   140001798:	90                   	nop
   140001799:	90                   	nop
   14000179a:	90                   	nop
   14000179b:	90                   	nop
   14000179c:	90                   	nop
   14000179d:	90                   	nop
   14000179e:	90                   	nop
   14000179f:	90                   	nop

00000001400017a0 <_fpreset>:
   1400017a0:	db e3                	fninit
   1400017a2:	c3                   	ret
   1400017a3:	90                   	nop
   1400017a4:	90                   	nop
   1400017a5:	90                   	nop
   1400017a6:	90                   	nop
   1400017a7:	90                   	nop
   1400017a8:	90                   	nop
   1400017a9:	90                   	nop
   1400017aa:	90                   	nop
   1400017ab:	90                   	nop
   1400017ac:	90                   	nop
   1400017ad:	90                   	nop
   1400017ae:	90                   	nop
   1400017af:	90                   	nop

00000001400017b0 <__report_error>:
   1400017b0:	56                   	push   %rsi
   1400017b1:	53                   	push   %rbx
   1400017b2:	48 83 ec 38          	sub    $0x38,%rsp
   1400017b6:	48 8d 44 24 58       	lea    0x58(%rsp),%rax
   1400017bb:	48 89 cb             	mov    %rcx,%rbx
   1400017be:	b9 02 00 00 00       	mov    $0x2,%ecx
   1400017c3:	48 89 54 24 58       	mov    %rdx,0x58(%rsp)
   1400017c8:	4c 89 44 24 60       	mov    %r8,0x60(%rsp)
   1400017cd:	4c 89 4c 24 68       	mov    %r9,0x68(%rsp)
   1400017d2:	48 89 44 24 28       	mov    %rax,0x28(%rsp)
   1400017d7:	e8 64 10 00 00       	call   140002840 <__acrt_iob_func>
   1400017dc:	41 b8 1b 00 00 00    	mov    $0x1b,%r8d
   1400017e2:	ba 01 00 00 00       	mov    $0x1,%edx
   1400017e7:	48 8d 0d d2 29 00 00 	lea    0x29d2(%rip),%rcx        # 1400041c0 <.rdata>
   1400017ee:	49 89 c1             	mov    %rax,%r9
   1400017f1:	e8 72 10 00 00       	call   140002868 <fwrite>
   1400017f6:	48 8b 74 24 28       	mov    0x28(%rsp),%rsi
   1400017fb:	b9 02 00 00 00       	mov    $0x2,%ecx
   140001800:	e8 3b 10 00 00       	call   140002840 <__acrt_iob_func>
   140001805:	48 89 da             	mov    %rbx,%rdx
   140001808:	48 89 c1             	mov    %rax,%rcx
   14000180b:	49 89 f0             	mov    %rsi,%r8
   14000180e:	e8 7d 0d 00 00       	call   140002590 <vfprintf>
   140001813:	e8 c8 10 00 00       	call   1400028e0 <abort>
   140001818:	90                   	nop
   140001819:	0f 1f 80 00 00 00 00 	nopl   0x0(%rax)

0000000140001820 <mark_section_writable>:
   140001820:	57                   	push   %rdi
   140001821:	56                   	push   %rsi
   140001822:	53                   	push   %rbx
   140001823:	48 83 ec 50          	sub    $0x50,%rsp
   140001827:	48 63 35 66 58 00 00 	movslq 0x5866(%rip),%rsi        # 140007094 <maxSections>
   14000182e:	85 f6                	test   %esi,%esi
   140001830:	48 89 cb             	mov    %rcx,%rbx
   140001833:	0f 8e 17 01 00 00    	jle    140001950 <mark_section_writable+0x130>
   140001839:	48 8b 05 58 58 00 00 	mov    0x5858(%rip),%rax        # 140007098 <the_secs>
   140001840:	45 31 c9             	xor    %r9d,%r9d
   140001843:	48 83 c0 18          	add    $0x18,%rax
   140001847:	66 0f 1f 84 00 00 00 	nopw   0x0(%rax,%rax,1)
   14000184e:	00 00 
   140001850:	4c 8b 00             	mov    (%rax),%r8
   140001853:	4c 39 c3             	cmp    %r8,%rbx
   140001856:	72 13                	jb     14000186b <mark_section_writable+0x4b>
   140001858:	48 8b 50 08          	mov    0x8(%rax),%rdx
   14000185c:	8b 52 08             	mov    0x8(%rdx),%edx
   14000185f:	49 01 d0             	add    %rdx,%r8
   140001862:	4c 39 c3             	cmp    %r8,%rbx
   140001865:	0f 82 8a 00 00 00    	jb     1400018f5 <mark_section_writable+0xd5>
   14000186b:	41 83 c1 01          	add    $0x1,%r9d
   14000186f:	48 83 c0 28          	add    $0x28,%rax
   140001873:	41 39 f1             	cmp    %esi,%r9d
   140001876:	75 d8                	jne    140001850 <mark_section_writable+0x30>
   140001878:	48 89 d9             	mov    %rbx,%rcx
   14000187b:	e8 f0 09 00 00       	call   140002270 <__mingw_GetSectionForAddress>
   140001880:	48 85 c0             	test   %rax,%rax
   140001883:	48 89 c7             	mov    %rax,%rdi
   140001886:	0f 84 e6 00 00 00    	je     140001972 <mark_section_writable+0x152>
   14000188c:	48 8b 05 05 58 00 00 	mov    0x5805(%rip),%rax        # 140007098 <the_secs>
   140001893:	48 8d 1c b6          	lea    (%rsi,%rsi,4),%rbx
   140001897:	48 c1 e3 03          	shl    $0x3,%rbx
   14000189b:	48 01 d8             	add    %rbx,%rax
   14000189e:	48 89 78 20          	mov    %rdi,0x20(%rax)
   1400018a2:	c7 00 00 00 00 00    	movl   $0x0,(%rax)
   1400018a8:	e8 03 0b 00 00       	call   1400023b0 <_GetPEImageBase>
   1400018ad:	8b 57 0c             	mov    0xc(%rdi),%edx
   1400018b0:	41 b8 30 00 00 00    	mov    $0x30,%r8d
   1400018b6:	48 8d 0c 10          	lea    (%rax,%rdx,1),%rcx
   1400018ba:	48 8b 05 d7 57 00 00 	mov    0x57d7(%rip),%rax        # 140007098 <the_secs>
   1400018c1:	48 8d 54 24 20       	lea    0x20(%rsp),%rdx
   1400018c6:	48 89 4c 18 18       	mov    %rcx,0x18(%rax,%rbx,1)
   1400018cb:	ff 15 43 6a 00 00    	call   *0x6a43(%rip)        # 140008314 <__imp_VirtualQuery>
   1400018d1:	48 85 c0             	test   %rax,%rax
   1400018d4:	0f 84 7d 00 00 00    	je     140001957 <mark_section_writable+0x137>
   1400018da:	8b 44 24 44          	mov    0x44(%rsp),%eax
   1400018de:	8d 50 c0             	lea    -0x40(%rax),%edx
   1400018e1:	83 e2 bf             	and    $0xffffffbf,%edx
   1400018e4:	74 08                	je     1400018ee <mark_section_writable+0xce>
   1400018e6:	8d 50 fc             	lea    -0x4(%rax),%edx
   1400018e9:	83 e2 fb             	and    $0xfffffffb,%edx
   1400018ec:	75 12                	jne    140001900 <mark_section_writable+0xe0>
   1400018ee:	83 05 9f 57 00 00 01 	addl   $0x1,0x579f(%rip)        # 140007094 <maxSections>
   1400018f5:	48 83 c4 50          	add    $0x50,%rsp
   1400018f9:	5b                   	pop    %rbx
   1400018fa:	5e                   	pop    %rsi
   1400018fb:	5f                   	pop    %rdi
   1400018fc:	c3                   	ret
   1400018fd:	0f 1f 00             	nopl   (%rax)
   140001900:	83 f8 02             	cmp    $0x2,%eax
   140001903:	41 b8 40 00 00 00    	mov    $0x40,%r8d
   140001909:	b8 04 00 00 00       	mov    $0x4,%eax
   14000190e:	48 8b 4c 24 20       	mov    0x20(%rsp),%rcx
   140001913:	44 0f 44 c0          	cmove  %eax,%r8d
   140001917:	48 8b 54 24 38       	mov    0x38(%rsp),%rdx
   14000191c:	48 03 1d 75 57 00 00 	add    0x5775(%rip),%rbx        # 140007098 <the_secs>
   140001923:	49 89 d9             	mov    %rbx,%r9
   140001926:	48 89 4b 08          	mov    %rcx,0x8(%rbx)
   14000192a:	48 89 53 10          	mov    %rdx,0x10(%rbx)
   14000192e:	ff 15 d8 69 00 00    	call   *0x69d8(%rip)        # 14000830c <__imp_VirtualProtect>
   140001934:	85 c0                	test   %eax,%eax
   140001936:	75 b6                	jne    1400018ee <mark_section_writable+0xce>
   140001938:	ff 15 9e 69 00 00    	call   *0x699e(%rip)        # 1400082dc <__imp_GetLastError>
   14000193e:	48 8d 0d f3 28 00 00 	lea    0x28f3(%rip),%rcx        # 140004238 <.rdata+0x78>
   140001945:	89 c2                	mov    %eax,%edx
   140001947:	e8 64 fe ff ff       	call   1400017b0 <__report_error>
   14000194c:	0f 1f 40 00          	nopl   0x0(%rax)
   140001950:	31 f6                	xor    %esi,%esi
   140001952:	e9 21 ff ff ff       	jmp    140001878 <mark_section_writable+0x58>
   140001957:	48 8b 05 3a 57 00 00 	mov    0x573a(%rip),%rax        # 140007098 <the_secs>
   14000195e:	48 8d 0d 9b 28 00 00 	lea    0x289b(%rip),%rcx        # 140004200 <.rdata+0x40>
   140001965:	8b 57 08             	mov    0x8(%rdi),%edx
   140001968:	4c 8b 44 18 18       	mov    0x18(%rax,%rbx,1),%r8
   14000196d:	e8 3e fe ff ff       	call   1400017b0 <__report_error>
   140001972:	48 8d 0d 67 28 00 00 	lea    0x2867(%rip),%rcx        # 1400041e0 <.rdata+0x20>
   140001979:	48 89 da             	mov    %rbx,%rdx
   14000197c:	e8 2f fe ff ff       	call   1400017b0 <__report_error>
   140001981:	90                   	nop
   140001982:	66 66 2e 0f 1f 84 00 	data16 cs nopw 0x0(%rax,%rax,1)
   140001989:	00 00 00 00 
   14000198d:	0f 1f 00             	nopl   (%rax)

0000000140001990 <_pei386_runtime_relocator>:
   140001990:	55                   	push   %rbp
   140001991:	41 57                	push   %r15
   140001993:	41 56                	push   %r14
   140001995:	41 55                	push   %r13
   140001997:	41 54                	push   %r12
   140001999:	57                   	push   %rdi
   14000199a:	56                   	push   %rsi
   14000199b:	53                   	push   %rbx
   14000199c:	48 83 ec 48          	sub    $0x48,%rsp
   1400019a0:	48 8d 6c 24 40       	lea    0x40(%rsp),%rbp
   1400019a5:	8b 3d e5 56 00 00    	mov    0x56e5(%rip),%edi        # 140007090 <was_init.0>
   1400019ab:	85 ff                	test   %edi,%edi
   1400019ad:	74 11                	je     1400019c0 <_pei386_runtime_relocator+0x30>
   1400019af:	48 8d 65 08          	lea    0x8(%rbp),%rsp
   1400019b3:	5b                   	pop    %rbx
   1400019b4:	5e                   	pop    %rsi
   1400019b5:	5f                   	pop    %rdi
   1400019b6:	41 5c                	pop    %r12
   1400019b8:	41 5d                	pop    %r13
   1400019ba:	41 5e                	pop    %r14
   1400019bc:	41 5f                	pop    %r15
   1400019be:	5d                   	pop    %rbp
   1400019bf:	c3                   	ret
   1400019c0:	c7 05 c6 56 00 00 01 	movl   $0x1,0x56c6(%rip)        # 140007090 <was_init.0>
   1400019c7:	00 00 00 
   1400019ca:	e8 21 09 00 00       	call   1400022f0 <__mingw_GetSectionCount>
   1400019cf:	48 98                	cltq
   1400019d1:	48 8d 04 80          	lea    (%rax,%rax,4),%rax
   1400019d5:	48 8d 04 c5 0f 00 00 	lea    0xf(,%rax,8),%rax
   1400019dc:	00 
   1400019dd:	48 83 e0 f0          	and    $0xfffffffffffffff0,%rax
   1400019e1:	e8 6a 0b 00 00       	call   140002550 <___chkstk_ms>
   1400019e6:	4c 8b 2d d3 29 00 00 	mov    0x29d3(%rip),%r13        # 1400043c0 <.refptr.__RUNTIME_PSEUDO_RELOC_LIST_END__>
   1400019ed:	c7 05 9d 56 00 00 00 	movl   $0x0,0x569d(%rip)        # 140007094 <maxSections>
   1400019f4:	00 00 00 
   1400019f7:	48 8b 1d d2 29 00 00 	mov    0x29d2(%rip),%rbx        # 1400043d0 <.refptr.__RUNTIME_PSEUDO_RELOC_LIST__>
   1400019fe:	48 29 c4             	sub    %rax,%rsp
   140001a01:	48 8d 44 24 30       	lea    0x30(%rsp),%rax
   140001a06:	48 89 05 8b 56 00 00 	mov    %rax,0x568b(%rip)        # 140007098 <the_secs>
   140001a0d:	4c 89 e8             	mov    %r13,%rax
   140001a10:	48 29 d8             	sub    %rbx,%rax
   140001a13:	48 83 f8 07          	cmp    $0x7,%rax
   140001a17:	7e 96                	jle    1400019af <_pei386_runtime_relocator+0x1f>
   140001a19:	48 83 f8 0b          	cmp    $0xb,%rax
   140001a1d:	8b 13                	mov    (%rbx),%edx
   140001a1f:	0f 8f 83 01 00 00    	jg     140001ba8 <_pei386_runtime_relocator+0x218>
   140001a25:	8b 03                	mov    (%rbx),%eax
   140001a27:	85 c0                	test   %eax,%eax
   140001a29:	0f 85 71 02 00 00    	jne    140001ca0 <_pei386_runtime_relocator+0x310>
   140001a2f:	8b 43 04             	mov    0x4(%rbx),%eax
   140001a32:	85 c0                	test   %eax,%eax
   140001a34:	0f 85 66 02 00 00    	jne    140001ca0 <_pei386_runtime_relocator+0x310>
   140001a3a:	8b 53 08             	mov    0x8(%rbx),%edx
   140001a3d:	83 fa 01             	cmp    $0x1,%edx
   140001a40:	0f 85 9c 02 00 00    	jne    140001ce2 <_pei386_runtime_relocator+0x352>
   140001a46:	48 83 c3 0c          	add    $0xc,%rbx
   140001a4a:	4c 39 eb             	cmp    %r13,%rbx
   140001a4d:	0f 83 5c ff ff ff    	jae    1400019af <_pei386_runtime_relocator+0x1f>
   140001a53:	4c 8b 25 96 29 00 00 	mov    0x2996(%rip),%r12        # 1400043f0 <.refptr.__image_base__>
   140001a5a:	49 bf ff ff ff 7f ff 	movabs $0xffffffff7fffffff,%r15
   140001a61:	ff ff ff 
   140001a64:	eb 5d                	jmp    140001ac3 <_pei386_runtime_relocator+0x133>
   140001a66:	66 2e 0f 1f 84 00 00 	cs nopw 0x0(%rax,%rax,1)
   140001a6d:	00 00 00 
   140001a70:	41 0f b6 36          	movzbl (%r14),%esi
   140001a74:	81 e1 c0 00 00 00    	and    $0xc0,%ecx
   140001a7a:	40 84 f6             	test   %sil,%sil
   140001a7d:	0f 89 05 02 00 00    	jns    140001c88 <_pei386_runtime_relocator+0x2f8>
   140001a83:	48 81 ce 00 ff ff ff 	or     $0xffffffffffffff00,%rsi
   140001a8a:	48 29 c6             	sub    %rax,%rsi
   140001a8d:	4c 01 ce             	add    %r9,%rsi
   140001a90:	85 c9                	test   %ecx,%ecx
   140001a92:	75 17                	jne    140001aab <_pei386_runtime_relocator+0x11b>
   140001a94:	48 81 fe ff 00 00 00 	cmp    $0xff,%rsi
   140001a9b:	0f 8f 4e 01 00 00    	jg     140001bef <_pei386_runtime_relocator+0x25f>
   140001aa1:	48 83 fe 80          	cmp    $0xffffffffffffff80,%rsi
   140001aa5:	0f 8c 44 01 00 00    	jl     140001bef <_pei386_runtime_relocator+0x25f>
   140001aab:	4c 89 f1             	mov    %r14,%rcx
   140001aae:	e8 6d fd ff ff       	call   140001820 <mark_section_writable>
   140001ab3:	41 88 36             	mov    %sil,(%r14)
   140001ab6:	48 83 c3 0c          	add    $0xc,%rbx
   140001aba:	4c 39 eb             	cmp    %r13,%rbx
   140001abd:	0f 83 8d 00 00 00    	jae    140001b50 <_pei386_runtime_relocator+0x1c0>
   140001ac3:	8b 4b 08             	mov    0x8(%rbx),%ecx
   140001ac6:	8b 03                	mov    (%rbx),%eax
   140001ac8:	44 8b 43 04          	mov    0x4(%rbx),%r8d
   140001acc:	0f b6 d1             	movzbl %cl,%edx
   140001acf:	4c 01 e0             	add    %r12,%rax
   140001ad2:	83 fa 20             	cmp    $0x20,%edx
   140001ad5:	4c 8b 08             	mov    (%rax),%r9
   140001ad8:	4f 8d 34 20          	lea    (%r8,%r12,1),%r14
   140001adc:	0f 84 26 01 00 00    	je     140001c08 <_pei386_runtime_relocator+0x278>
   140001ae2:	0f 87 e8 00 00 00    	ja     140001bd0 <_pei386_runtime_relocator+0x240>
   140001ae8:	83 fa 08             	cmp    $0x8,%edx
   140001aeb:	74 83                	je     140001a70 <_pei386_runtime_relocator+0xe0>
   140001aed:	83 fa 10             	cmp    $0x10,%edx
   140001af0:	0f 85 e0 01 00 00    	jne    140001cd6 <_pei386_runtime_relocator+0x346>
   140001af6:	41 0f b7 36          	movzwl (%r14),%esi
   140001afa:	81 e1 c0 00 00 00    	and    $0xc0,%ecx
   140001b00:	66 85 f6             	test   %si,%si
   140001b03:	0f 89 67 01 00 00    	jns    140001c70 <_pei386_runtime_relocator+0x2e0>
   140001b09:	48 81 ce 00 00 ff ff 	or     $0xffffffffffff0000,%rsi
   140001b10:	48 29 c6             	sub    %rax,%rsi
   140001b13:	4c 01 ce             	add    %r9,%rsi
   140001b16:	85 c9                	test   %ecx,%ecx
   140001b18:	75 1a                	jne    140001b34 <_pei386_runtime_relocator+0x1a4>
   140001b1a:	48 81 fe 00 80 ff ff 	cmp    $0xffffffffffff8000,%rsi
   140001b21:	0f 8c c8 00 00 00    	jl     140001bef <_pei386_runtime_relocator+0x25f>
   140001b27:	48 81 fe ff ff 00 00 	cmp    $0xffff,%rsi
   140001b2e:	0f 8f bb 00 00 00    	jg     140001bef <_pei386_runtime_relocator+0x25f>
   140001b34:	4c 89 f1             	mov    %r14,%rcx
   140001b37:	48 83 c3 0c          	add    $0xc,%rbx
   140001b3b:	e8 e0 fc ff ff       	call   140001820 <mark_section_writable>
   140001b40:	4c 39 eb             	cmp    %r13,%rbx
   140001b43:	66 41 89 36          	mov    %si,(%r14)
   140001b47:	0f 82 76 ff ff ff    	jb     140001ac3 <_pei386_runtime_relocator+0x133>
   140001b4d:	0f 1f 00             	nopl   (%rax)
   140001b50:	8b 15 3e 55 00 00    	mov    0x553e(%rip),%edx        # 140007094 <maxSections>
   140001b56:	85 d2                	test   %edx,%edx
   140001b58:	0f 8e 51 fe ff ff    	jle    1400019af <_pei386_runtime_relocator+0x1f>
   140001b5e:	48 8b 35 a7 67 00 00 	mov    0x67a7(%rip),%rsi        # 14000830c <__imp_VirtualProtect>
   140001b65:	4c 8d 65 fc          	lea    -0x4(%rbp),%r12
   140001b69:	31 db                	xor    %ebx,%ebx
   140001b6b:	0f 1f 44 00 00       	nopl   0x0(%rax,%rax,1)
   140001b70:	48 8b 05 21 55 00 00 	mov    0x5521(%rip),%rax        # 140007098 <the_secs>
   140001b77:	48 01 d8             	add    %rbx,%rax
   140001b7a:	44 8b 00             	mov    (%rax),%r8d
   140001b7d:	45 85 c0             	test   %r8d,%r8d
   140001b80:	74 0d                	je     140001b8f <_pei386_runtime_relocator+0x1ff>
   140001b82:	48 8b 50 10          	mov    0x10(%rax),%rdx
   140001b86:	4d 89 e1             	mov    %r12,%r9
   140001b89:	48 8b 48 08          	mov    0x8(%rax),%rcx
   140001b8d:	ff d6                	call   *%rsi
   140001b8f:	83 c7 01             	add    $0x1,%edi
   140001b92:	48 83 c3 28          	add    $0x28,%rbx
   140001b96:	3b 3d f8 54 00 00    	cmp    0x54f8(%rip),%edi        # 140007094 <maxSections>
   140001b9c:	7c d2                	jl     140001b70 <_pei386_runtime_relocator+0x1e0>
   140001b9e:	e9 0c fe ff ff       	jmp    1400019af <_pei386_runtime_relocator+0x1f>
   140001ba3:	0f 1f 44 00 00       	nopl   0x0(%rax,%rax,1)
   140001ba8:	85 d2                	test   %edx,%edx
   140001baa:	0f 85 f0 00 00 00    	jne    140001ca0 <_pei386_runtime_relocator+0x310>
   140001bb0:	8b 43 04             	mov    0x4(%rbx),%eax
   140001bb3:	89 c2                	mov    %eax,%edx
   140001bb5:	0b 53 08             	or     0x8(%rbx),%edx
   140001bb8:	0f 85 74 fe ff ff    	jne    140001a32 <_pei386_runtime_relocator+0xa2>
   140001bbe:	48 83 c3 0c          	add    $0xc,%rbx
   140001bc2:	e9 5e fe ff ff       	jmp    140001a25 <_pei386_runtime_relocator+0x95>
   140001bc7:	66 0f 1f 84 00 00 00 	nopw   0x0(%rax,%rax,1)
   140001bce:	00 00 
   140001bd0:	83 fa 40             	cmp    $0x40,%edx
   140001bd3:	0f 85 fd 00 00 00    	jne    140001cd6 <_pei386_runtime_relocator+0x346>
   140001bd9:	49 8b 36             	mov    (%r14),%rsi
   140001bdc:	48 29 c6             	sub    %rax,%rsi
   140001bdf:	4c 01 ce             	add    %r9,%rsi
   140001be2:	81 e1 c0 00 00 00    	and    $0xc0,%ecx
   140001be8:	75 66                	jne    140001c50 <_pei386_runtime_relocator+0x2c0>
   140001bea:	48 85 f6             	test   %rsi,%rsi
   140001bed:	78 61                	js     140001c50 <_pei386_runtime_relocator+0x2c0>
   140001bef:	48 89 74 24 20       	mov    %rsi,0x20(%rsp)
   140001bf4:	48 8d 0d cd 26 00 00 	lea    0x26cd(%rip),%rcx        # 1400042c8 <.rdata+0x108>
   140001bfb:	4d 89 f0             	mov    %r14,%r8
   140001bfe:	e8 ad fb ff ff       	call   1400017b0 <__report_error>
   140001c03:	0f 1f 44 00 00       	nopl   0x0(%rax,%rax,1)
   140001c08:	41 8b 36             	mov    (%r14),%esi
   140001c0b:	81 e1 c0 00 00 00    	and    $0xc0,%ecx
   140001c11:	85 f6                	test   %esi,%esi
   140001c13:	79 4b                	jns    140001c60 <_pei386_runtime_relocator+0x2d0>
   140001c15:	49 bb 00 00 00 00 ff 	movabs $0xffffffff00000000,%r11
   140001c1c:	ff ff ff 
   140001c1f:	4c 09 de             	or     %r11,%rsi
   140001c22:	48 29 c6             	sub    %rax,%rsi
   140001c25:	4c 01 ce             	add    %r9,%rsi
   140001c28:	85 c9                	test   %ecx,%ecx
   140001c2a:	75 0f                	jne    140001c3b <_pei386_runtime_relocator+0x2ab>
   140001c2c:	4c 39 fe             	cmp    %r15,%rsi
   140001c2f:	7e be                	jle    140001bef <_pei386_runtime_relocator+0x25f>
   140001c31:	b8 ff ff ff ff       	mov    $0xffffffff,%eax
   140001c36:	48 39 c6             	cmp    %rax,%rsi
   140001c39:	7f b4                	jg     140001bef <_pei386_runtime_relocator+0x25f>
   140001c3b:	4c 89 f1             	mov    %r14,%rcx
   140001c3e:	e8 dd fb ff ff       	call   140001820 <mark_section_writable>
   140001c43:	41 89 36             	mov    %esi,(%r14)
   140001c46:	e9 6b fe ff ff       	jmp    140001ab6 <_pei386_runtime_relocator+0x126>
   140001c4b:	0f 1f 44 00 00       	nopl   0x0(%rax,%rax,1)
   140001c50:	4c 89 f1             	mov    %r14,%rcx
   140001c53:	e8 c8 fb ff ff       	call   140001820 <mark_section_writable>
   140001c58:	49 89 36             	mov    %rsi,(%r14)
   140001c5b:	e9 56 fe ff ff       	jmp    140001ab6 <_pei386_runtime_relocator+0x126>
   140001c60:	48 29 c6             	sub    %rax,%rsi
   140001c63:	4c 01 ce             	add    %r9,%rsi
   140001c66:	85 c9                	test   %ecx,%ecx
   140001c68:	74 c2                	je     140001c2c <_pei386_runtime_relocator+0x29c>
   140001c6a:	eb cf                	jmp    140001c3b <_pei386_runtime_relocator+0x2ab>
   140001c6c:	0f 1f 40 00          	nopl   0x0(%rax)
   140001c70:	48 29 c6             	sub    %rax,%rsi
   140001c73:	4c 01 ce             	add    %r9,%rsi
   140001c76:	85 c9                	test   %ecx,%ecx
   140001c78:	0f 84 9c fe ff ff    	je     140001b1a <_pei386_runtime_relocator+0x18a>
   140001c7e:	e9 b1 fe ff ff       	jmp    140001b34 <_pei386_runtime_relocator+0x1a4>
   140001c83:	0f 1f 44 00 00       	nopl   0x0(%rax,%rax,1)
   140001c88:	48 29 c6             	sub    %rax,%rsi
   140001c8b:	4c 01 ce             	add    %r9,%rsi
   140001c8e:	85 c9                	test   %ecx,%ecx
   140001c90:	0f 84 fe fd ff ff    	je     140001a94 <_pei386_runtime_relocator+0x104>
   140001c96:	e9 10 fe ff ff       	jmp    140001aab <_pei386_runtime_relocator+0x11b>
   140001c9b:	0f 1f 44 00 00       	nopl   0x0(%rax,%rax,1)
   140001ca0:	4c 39 eb             	cmp    %r13,%rbx
   140001ca3:	0f 83 06 fd ff ff    	jae    1400019af <_pei386_runtime_relocator+0x1f>
   140001ca9:	4c 8b 35 40 27 00 00 	mov    0x2740(%rip),%r14        # 1400043f0 <.refptr.__image_base__>
   140001cb0:	8b 73 04             	mov    0x4(%rbx),%esi
   140001cb3:	48 83 c3 08          	add    $0x8,%rbx
   140001cb7:	44 8b 63 f8          	mov    -0x8(%rbx),%r12d
   140001cbb:	4c 01 f6             	add    %r14,%rsi
   140001cbe:	44 03 26             	add    (%rsi),%r12d
   140001cc1:	48 89 f1             	mov    %rsi,%rcx
   140001cc4:	e8 57 fb ff ff       	call   140001820 <mark_section_writable>
   140001cc9:	4c 39 eb             	cmp    %r13,%rbx
   140001ccc:	44 89 26             	mov    %r12d,(%rsi)
   140001ccf:	72 df                	jb     140001cb0 <_pei386_runtime_relocator+0x320>
   140001cd1:	e9 7a fe ff ff       	jmp    140001b50 <_pei386_runtime_relocator+0x1c0>
   140001cd6:	48 8d 0d bb 25 00 00 	lea    0x25bb(%rip),%rcx        # 140004298 <.rdata+0xd8>
   140001cdd:	e8 ce fa ff ff       	call   1400017b0 <__report_error>
   140001ce2:	48 8d 0d 77 25 00 00 	lea    0x2577(%rip),%rcx        # 140004260 <.rdata+0xa0>
   140001ce9:	e8 c2 fa ff ff       	call   1400017b0 <__report_error>
   140001cee:	90                   	nop
   140001cef:	90                   	nop

0000000140001cf0 <__mingw_raise_matherr>:
   140001cf0:	48 83 ec 58          	sub    $0x58,%rsp
   140001cf4:	48 8b 05 a5 53 00 00 	mov    0x53a5(%rip),%rax        # 1400070a0 <stUserMathErr>
   140001cfb:	48 85 c0             	test   %rax,%rax
   140001cfe:	66 0f 14 d3          	unpcklpd %xmm3,%xmm2
   140001d02:	74 25                	je     140001d29 <__mingw_raise_matherr+0x39>
   140001d04:	f2 0f 10 84 24 80 00 	movsd  0x80(%rsp),%xmm0
   140001d0b:	00 00 
   140001d0d:	89 4c 24 20          	mov    %ecx,0x20(%rsp)
   140001d11:	48 8d 4c 24 20       	lea    0x20(%rsp),%rcx
   140001d16:	48 89 54 24 28       	mov    %rdx,0x28(%rsp)
   140001d1b:	0f 29 54 24 30       	movaps %xmm2,0x30(%rsp)
   140001d20:	f2 0f 11 44 24 40    	movsd  %xmm0,0x40(%rsp)
   140001d26:	ff d0                	call   *%rax
   140001d28:	90                   	nop
   140001d29:	48 83 c4 58          	add    $0x58,%rsp
   140001d2d:	c3                   	ret
   140001d2e:	66 90                	xchg   %ax,%ax

0000000140001d30 <__mingw_setusermatherr>:
   140001d30:	48 89 0d 69 53 00 00 	mov    %rcx,0x5369(%rip)        # 1400070a0 <stUserMathErr>
   140001d37:	e9 d4 0b 00 00       	jmp    140002910 <__setusermatherr>
   140001d3c:	90                   	nop
   140001d3d:	90                   	nop
   140001d3e:	90                   	nop
   140001d3f:	90                   	nop

0000000140001d40 <_gnu_exception_handler>:
   140001d40:	53                   	push   %rbx
   140001d41:	48 83 ec 20          	sub    $0x20,%rsp
   140001d45:	48 8b 11             	mov    (%rcx),%rdx
   140001d48:	8b 02                	mov    (%rdx),%eax
   140001d4a:	48 89 cb             	mov    %rcx,%rbx
   140001d4d:	89 c1                	mov    %eax,%ecx
   140001d4f:	81 e1 ff ff ff 20    	and    $0x20ffffff,%ecx
   140001d55:	81 f9 43 43 47 20    	cmp    $0x20474343,%ecx
   140001d5b:	0f 84 9f 00 00 00    	je     140001e00 <_gnu_exception_handler+0xc0>
   140001d61:	3d 96 00 00 c0       	cmp    $0xc0000096,%eax
   140001d66:	77 77                	ja     140001ddf <_gnu_exception_handler+0x9f>
   140001d68:	3d 8b 00 00 c0       	cmp    $0xc000008b,%eax
   140001d6d:	76 21                	jbe    140001d90 <_gnu_exception_handler+0x50>
   140001d6f:	05 73 ff ff 3f       	add    $0x3fffff73,%eax
   140001d74:	83 f8 09             	cmp    $0x9,%eax
   140001d77:	77 54                	ja     140001dcd <_gnu_exception_handler+0x8d>
   140001d79:	48 8d 15 a0 25 00 00 	lea    0x25a0(%rip),%rdx        # 140004320 <.rdata>
   140001d80:	48 63 04 82          	movslq (%rdx,%rax,4),%rax
   140001d84:	48 01 d0             	add    %rdx,%rax
   140001d87:	ff e0                	jmp    *%rax
   140001d89:	0f 1f 80 00 00 00 00 	nopl   0x0(%rax)
   140001d90:	3d 05 00 00 c0       	cmp    $0xc0000005,%eax
   140001d95:	0f 84 d5 00 00 00    	je     140001e70 <_gnu_exception_handler+0x130>
   140001d9b:	76 3b                	jbe    140001dd8 <_gnu_exception_handler+0x98>
   140001d9d:	3d 08 00 00 c0       	cmp    $0xc0000008,%eax
   140001da2:	74 29                	je     140001dcd <_gnu_exception_handler+0x8d>
   140001da4:	3d 1d 00 00 c0       	cmp    $0xc000001d,%eax
   140001da9:	75 34                	jne    140001ddf <_gnu_exception_handler+0x9f>
   140001dab:	31 d2                	xor    %edx,%edx
   140001dad:	b9 04 00 00 00       	mov    $0x4,%ecx
   140001db2:	e8 39 0b 00 00       	call   1400028f0 <signal>
   140001db7:	48 83 f8 01          	cmp    $0x1,%rax
   140001dbb:	0f 84 d6 00 00 00    	je     140001e97 <_gnu_exception_handler+0x157>
   140001dc1:	48 85 c0             	test   %rax,%rax
   140001dc4:	74 19                	je     140001ddf <_gnu_exception_handler+0x9f>
   140001dc6:	b9 04 00 00 00       	mov    $0x4,%ecx
   140001dcb:	ff d0                	call   *%rax
   140001dcd:	b8 ff ff ff ff       	mov    $0xffffffff,%eax
   140001dd2:	48 83 c4 20          	add    $0x20,%rsp
   140001dd6:	5b                   	pop    %rbx
   140001dd7:	c3                   	ret
   140001dd8:	3d 02 00 00 80       	cmp    $0x80000002,%eax
   140001ddd:	74 ee                	je     140001dcd <_gnu_exception_handler+0x8d>
   140001ddf:	48 8b 05 da 52 00 00 	mov    0x52da(%rip),%rax        # 1400070c0 <__mingw_oldexcpt_handler>
   140001de6:	48 85 c0             	test   %rax,%rax
   140001de9:	74 25                	je     140001e10 <_gnu_exception_handler+0xd0>
   140001deb:	48 89 d9             	mov    %rbx,%rcx
   140001dee:	48 83 c4 20          	add    $0x20,%rsp
   140001df2:	5b                   	pop    %rbx
   140001df3:	48 ff e0             	rex.W jmp *%rax
   140001df6:	66 2e 0f 1f 84 00 00 	cs nopw 0x0(%rax,%rax,1)
   140001dfd:	00 00 00 
   140001e00:	f6 42 04 01          	testb  $0x1,0x4(%rdx)
   140001e04:	0f 85 57 ff ff ff    	jne    140001d61 <_gnu_exception_handler+0x21>
   140001e0a:	eb c1                	jmp    140001dcd <_gnu_exception_handler+0x8d>
   140001e0c:	0f 1f 40 00          	nopl   0x0(%rax)
   140001e10:	31 c0                	xor    %eax,%eax
   140001e12:	48 83 c4 20          	add    $0x20,%rsp
   140001e16:	5b                   	pop    %rbx
   140001e17:	c3                   	ret
   140001e18:	0f 1f 84 00 00 00 00 	nopl   0x0(%rax,%rax,1)
   140001e1f:	00 
   140001e20:	31 d2                	xor    %edx,%edx
   140001e22:	b9 08 00 00 00       	mov    $0x8,%ecx
   140001e27:	e8 c4 0a 00 00       	call   1400028f0 <signal>
   140001e2c:	48 83 f8 01          	cmp    $0x1,%rax
   140001e30:	0f 84 89 00 00 00    	je     140001ebf <_gnu_exception_handler+0x17f>
   140001e36:	48 85 c0             	test   %rax,%rax
   140001e39:	74 a4                	je     140001ddf <_gnu_exception_handler+0x9f>
   140001e3b:	b9 08 00 00 00       	mov    $0x8,%ecx
   140001e40:	ff d0                	call   *%rax
   140001e42:	eb 89                	jmp    140001dcd <_gnu_exception_handler+0x8d>
   140001e44:	0f 1f 40 00          	nopl   0x0(%rax)
   140001e48:	31 d2                	xor    %edx,%edx
   140001e4a:	b9 08 00 00 00       	mov    $0x8,%ecx
   140001e4f:	e8 9c 0a 00 00       	call   1400028f0 <signal>
   140001e54:	48 83 f8 01          	cmp    $0x1,%rax
   140001e58:	75 dc                	jne    140001e36 <_gnu_exception_handler+0xf6>
   140001e5a:	ba 01 00 00 00       	mov    $0x1,%edx
   140001e5f:	b9 08 00 00 00       	mov    $0x8,%ecx
   140001e64:	e8 87 0a 00 00       	call   1400028f0 <signal>
   140001e69:	e9 5f ff ff ff       	jmp    140001dcd <_gnu_exception_handler+0x8d>
   140001e6e:	66 90                	xchg   %ax,%ax
   140001e70:	31 d2                	xor    %edx,%edx
   140001e72:	b9 0b 00 00 00       	mov    $0xb,%ecx
   140001e77:	e8 74 0a 00 00       	call   1400028f0 <signal>
   140001e7c:	48 83 f8 01          	cmp    $0x1,%rax
   140001e80:	74 29                	je     140001eab <_gnu_exception_handler+0x16b>
   140001e82:	48 85 c0             	test   %rax,%rax
   140001e85:	0f 84 54 ff ff ff    	je     140001ddf <_gnu_exception_handler+0x9f>
   140001e8b:	b9 0b 00 00 00       	mov    $0xb,%ecx
   140001e90:	ff d0                	call   *%rax
   140001e92:	e9 36 ff ff ff       	jmp    140001dcd <_gnu_exception_handler+0x8d>
   140001e97:	ba 01 00 00 00       	mov    $0x1,%edx
   140001e9c:	b9 04 00 00 00       	mov    $0x4,%ecx
   140001ea1:	e8 4a 0a 00 00       	call   1400028f0 <signal>
   140001ea6:	e9 22 ff ff ff       	jmp    140001dcd <_gnu_exception_handler+0x8d>
   140001eab:	ba 01 00 00 00       	mov    $0x1,%edx
   140001eb0:	b9 0b 00 00 00       	mov    $0xb,%ecx
   140001eb5:	e8 36 0a 00 00       	call   1400028f0 <signal>
   140001eba:	e9 0e ff ff ff       	jmp    140001dcd <_gnu_exception_handler+0x8d>
   140001ebf:	ba 01 00 00 00       	mov    $0x1,%edx
   140001ec4:	b9 08 00 00 00       	mov    $0x8,%ecx
   140001ec9:	e8 22 0a 00 00       	call   1400028f0 <signal>
   140001ece:	e8 cd f8 ff ff       	call   1400017a0 <_fpreset>
   140001ed3:	e9 f5 fe ff ff       	jmp    140001dcd <_gnu_exception_handler+0x8d>
   140001ed8:	90                   	nop
   140001ed9:	90                   	nop
   140001eda:	90                   	nop
   140001edb:	90                   	nop
   140001edc:	90                   	nop
   140001edd:	90                   	nop
   140001ede:	90                   	nop
   140001edf:	90                   	nop

0000000140001ee0 <__mingwthr_run_key_dtors.part.0>:
   140001ee0:	41 54                	push   %r12
   140001ee2:	55                   	push   %rbp
   140001ee3:	57                   	push   %rdi
   140001ee4:	56                   	push   %rsi
   140001ee5:	53                   	push   %rbx
   140001ee6:	48 83 ec 20          	sub    $0x20,%rsp
   140001eea:	4c 8d 25 0f 52 00 00 	lea    0x520f(%rip),%r12        # 140007100 <__mingwthr_cs>
   140001ef1:	4c 89 e1             	mov    %r12,%rcx
   140001ef4:	ff 15 da 63 00 00    	call   *0x63da(%rip)        # 1400082d4 <__imp_EnterCriticalSection>
   140001efa:	48 8b 1d df 51 00 00 	mov    0x51df(%rip),%rbx        # 1400070e0 <key_dtor_list>
   140001f01:	48 85 db             	test   %rbx,%rbx
   140001f04:	74 36                	je     140001f3c <__mingwthr_run_key_dtors.part.0+0x5c>
   140001f06:	48 8b 2d f7 63 00 00 	mov    0x63f7(%rip),%rbp        # 140008304 <__imp_TlsGetValue>
   140001f0d:	48 8b 3d c8 63 00 00 	mov    0x63c8(%rip),%rdi        # 1400082dc <__imp_GetLastError>
   140001f14:	0f 1f 40 00          	nopl   0x0(%rax)
   140001f18:	8b 0b                	mov    (%rbx),%ecx
   140001f1a:	ff d5                	call   *%rbp
   140001f1c:	48 89 c6             	mov    %rax,%rsi
   140001f1f:	ff d7                	call   *%rdi
   140001f21:	85 c0                	test   %eax,%eax
   140001f23:	75 0e                	jne    140001f33 <__mingwthr_run_key_dtors.part.0+0x53>
   140001f25:	48 85 f6             	test   %rsi,%rsi
   140001f28:	74 09                	je     140001f33 <__mingwthr_run_key_dtors.part.0+0x53>
   140001f2a:	48 8b 43 08          	mov    0x8(%rbx),%rax
   140001f2e:	48 89 f1             	mov    %rsi,%rcx
   140001f31:	ff d0                	call   *%rax
   140001f33:	48 8b 5b 10          	mov    0x10(%rbx),%rbx
   140001f37:	48 85 db             	test   %rbx,%rbx
   140001f3a:	75 dc                	jne    140001f18 <__mingwthr_run_key_dtors.part.0+0x38>
   140001f3c:	4c 89 e1             	mov    %r12,%rcx
   140001f3f:	48 83 c4 20          	add    $0x20,%rsp
   140001f43:	5b                   	pop    %rbx
   140001f44:	5e                   	pop    %rsi
   140001f45:	5f                   	pop    %rdi
   140001f46:	5d                   	pop    %rbp
   140001f47:	41 5c                	pop    %r12
   140001f49:	48 ff 25 9c 63 00 00 	rex.W jmp *0x639c(%rip)        # 1400082ec <__imp_LeaveCriticalSection>

0000000140001f50 <___w64_mingwthr_add_key_dtor>:
   140001f50:	57                   	push   %rdi
   140001f51:	56                   	push   %rsi
   140001f52:	53                   	push   %rbx
   140001f53:	48 83 ec 20          	sub    $0x20,%rsp
   140001f57:	8b 05 8b 51 00 00    	mov    0x518b(%rip),%eax        # 1400070e8 <__mingwthr_cs_init>
   140001f5d:	85 c0                	test   %eax,%eax
   140001f5f:	89 cf                	mov    %ecx,%edi
   140001f61:	48 89 d6             	mov    %rdx,%rsi
   140001f64:	75 0a                	jne    140001f70 <___w64_mingwthr_add_key_dtor+0x20>
   140001f66:	31 c0                	xor    %eax,%eax
   140001f68:	48 83 c4 20          	add    $0x20,%rsp
   140001f6c:	5b                   	pop    %rbx
   140001f6d:	5e                   	pop    %rsi
   140001f6e:	5f                   	pop    %rdi
   140001f6f:	c3                   	ret
   140001f70:	ba 18 00 00 00       	mov    $0x18,%edx
   140001f75:	b9 01 00 00 00       	mov    $0x1,%ecx
   140001f7a:	e8 a9 09 00 00       	call   140002928 <calloc>
   140001f7f:	48 85 c0             	test   %rax,%rax
   140001f82:	48 89 c3             	mov    %rax,%rbx
   140001f85:	74 33                	je     140001fba <___w64_mingwthr_add_key_dtor+0x6a>
   140001f87:	48 89 70 08          	mov    %rsi,0x8(%rax)
   140001f8b:	48 8d 35 6e 51 00 00 	lea    0x516e(%rip),%rsi        # 140007100 <__mingwthr_cs>
   140001f92:	89 38                	mov    %edi,(%rax)
   140001f94:	48 89 f1             	mov    %rsi,%rcx
   140001f97:	ff 15 37 63 00 00    	call   *0x6337(%rip)        # 1400082d4 <__imp_EnterCriticalSection>
   140001f9d:	48 8b 05 3c 51 00 00 	mov    0x513c(%rip),%rax        # 1400070e0 <key_dtor_list>
   140001fa4:	48 89 f1             	mov    %rsi,%rcx
   140001fa7:	48 89 1d 32 51 00 00 	mov    %rbx,0x5132(%rip)        # 1400070e0 <key_dtor_list>
   140001fae:	48 89 43 10          	mov    %rax,0x10(%rbx)
   140001fb2:	ff 15 34 63 00 00    	call   *0x6334(%rip)        # 1400082ec <__imp_LeaveCriticalSection>
   140001fb8:	eb ac                	jmp    140001f66 <___w64_mingwthr_add_key_dtor+0x16>
   140001fba:	83 c8 ff             	or     $0xffffffff,%eax
   140001fbd:	eb a9                	jmp    140001f68 <___w64_mingwthr_add_key_dtor+0x18>
   140001fbf:	90                   	nop

0000000140001fc0 <___w64_mingwthr_remove_key_dtor>:
   140001fc0:	56                   	push   %rsi
   140001fc1:	53                   	push   %rbx
   140001fc2:	48 83 ec 28          	sub    $0x28,%rsp
   140001fc6:	8b 05 1c 51 00 00    	mov    0x511c(%rip),%eax        # 1400070e8 <__mingwthr_cs_init>
   140001fcc:	85 c0                	test   %eax,%eax
   140001fce:	89 cb                	mov    %ecx,%ebx
   140001fd0:	75 0e                	jne    140001fe0 <___w64_mingwthr_remove_key_dtor+0x20>
   140001fd2:	31 c0                	xor    %eax,%eax
   140001fd4:	48 83 c4 28          	add    $0x28,%rsp
   140001fd8:	5b                   	pop    %rbx
   140001fd9:	5e                   	pop    %rsi
   140001fda:	c3                   	ret
   140001fdb:	0f 1f 44 00 00       	nopl   0x0(%rax,%rax,1)
   140001fe0:	48 8d 35 19 51 00 00 	lea    0x5119(%rip),%rsi        # 140007100 <__mingwthr_cs>
   140001fe7:	48 89 f1             	mov    %rsi,%rcx
   140001fea:	ff 15 e4 62 00 00    	call   *0x62e4(%rip)        # 1400082d4 <__imp_EnterCriticalSection>
   140001ff0:	48 8b 0d e9 50 00 00 	mov    0x50e9(%rip),%rcx        # 1400070e0 <key_dtor_list>
   140001ff7:	48 85 c9             	test   %rcx,%rcx
   140001ffa:	74 27                	je     140002023 <___w64_mingwthr_remove_key_dtor+0x63>
   140001ffc:	31 d2                	xor    %edx,%edx
   140001ffe:	eb 0b                	jmp    14000200b <___w64_mingwthr_remove_key_dtor+0x4b>
   140002000:	48 85 c0             	test   %rax,%rax
   140002003:	48 89 ca             	mov    %rcx,%rdx
   140002006:	74 1b                	je     140002023 <___w64_mingwthr_remove_key_dtor+0x63>
   140002008:	48 89 c1             	mov    %rax,%rcx
   14000200b:	8b 01                	mov    (%rcx),%eax
   14000200d:	39 d8                	cmp    %ebx,%eax
   14000200f:	48 8b 41 10          	mov    0x10(%rcx),%rax
   140002013:	75 eb                	jne    140002000 <___w64_mingwthr_remove_key_dtor+0x40>
   140002015:	48 85 d2             	test   %rdx,%rdx
   140002018:	74 1e                	je     140002038 <___w64_mingwthr_remove_key_dtor+0x78>
   14000201a:	48 89 42 10          	mov    %rax,0x10(%rdx)
   14000201e:	e8 0d 09 00 00       	call   140002930 <free>
   140002023:	48 89 f1             	mov    %rsi,%rcx
   140002026:	ff 15 c0 62 00 00    	call   *0x62c0(%rip)        # 1400082ec <__imp_LeaveCriticalSection>
   14000202c:	31 c0                	xor    %eax,%eax
   14000202e:	48 83 c4 28          	add    $0x28,%rsp
   140002032:	5b                   	pop    %rbx
   140002033:	5e                   	pop    %rsi
   140002034:	c3                   	ret
   140002035:	0f 1f 00             	nopl   (%rax)
   140002038:	48 89 05 a1 50 00 00 	mov    %rax,0x50a1(%rip)        # 1400070e0 <key_dtor_list>
   14000203f:	eb dd                	jmp    14000201e <___w64_mingwthr_remove_key_dtor+0x5e>
   140002041:	66 66 2e 0f 1f 84 00 	data16 cs nopw 0x0(%rax,%rax,1)
   140002048:	00 00 00 00 
   14000204c:	0f 1f 40 00          	nopl   0x0(%rax)

0000000140002050 <__mingw_TLScallback>:
   140002050:	53                   	push   %rbx
   140002051:	48 83 ec 20          	sub    $0x20,%rsp
   140002055:	83 fa 02             	cmp    $0x2,%edx
   140002058:	0f 84 b2 00 00 00    	je     140002110 <__mingw_TLScallback+0xc0>
   14000205e:	77 30                	ja     140002090 <__mingw_TLScallback+0x40>
   140002060:	85 d2                	test   %edx,%edx
   140002062:	74 4c                	je     1400020b0 <__mingw_TLScallback+0x60>
   140002064:	8b 05 7e 50 00 00    	mov    0x507e(%rip),%eax        # 1400070e8 <__mingwthr_cs_init>
   14000206a:	85 c0                	test   %eax,%eax
   14000206c:	0f 84 be 00 00 00    	je     140002130 <__mingw_TLScallback+0xe0>
   140002072:	c7 05 6c 50 00 00 01 	movl   $0x1,0x506c(%rip)        # 1400070e8 <__mingwthr_cs_init>
   140002079:	00 00 00 
   14000207c:	b8 01 00 00 00       	mov    $0x1,%eax
   140002081:	48 83 c4 20          	add    $0x20,%rsp
   140002085:	5b                   	pop    %rbx
   140002086:	c3                   	ret
   140002087:	66 0f 1f 84 00 00 00 	nopw   0x0(%rax,%rax,1)
   14000208e:	00 00 
   140002090:	83 fa 03             	cmp    $0x3,%edx
   140002093:	75 e7                	jne    14000207c <__mingw_TLScallback+0x2c>
   140002095:	8b 05 4d 50 00 00    	mov    0x504d(%rip),%eax        # 1400070e8 <__mingwthr_cs_init>
   14000209b:	85 c0                	test   %eax,%eax
   14000209d:	74 dd                	je     14000207c <__mingw_TLScallback+0x2c>
   14000209f:	e8 3c fe ff ff       	call   140001ee0 <__mingwthr_run_key_dtors.part.0>
   1400020a4:	eb d6                	jmp    14000207c <__mingw_TLScallback+0x2c>
   1400020a6:	66 2e 0f 1f 84 00 00 	cs nopw 0x0(%rax,%rax,1)
   1400020ad:	00 00 00 
   1400020b0:	8b 05 32 50 00 00    	mov    0x5032(%rip),%eax        # 1400070e8 <__mingwthr_cs_init>
   1400020b6:	85 c0                	test   %eax,%eax
   1400020b8:	75 66                	jne    140002120 <__mingw_TLScallback+0xd0>
   1400020ba:	8b 05 28 50 00 00    	mov    0x5028(%rip),%eax        # 1400070e8 <__mingwthr_cs_init>
   1400020c0:	83 f8 01             	cmp    $0x1,%eax
   1400020c3:	75 b7                	jne    14000207c <__mingw_TLScallback+0x2c>
   1400020c5:	48 8b 1d 14 50 00 00 	mov    0x5014(%rip),%rbx        # 1400070e0 <key_dtor_list>
   1400020cc:	48 85 db             	test   %rbx,%rbx
   1400020cf:	74 18                	je     1400020e9 <__mingw_TLScallback+0x99>
   1400020d1:	0f 1f 80 00 00 00 00 	nopl   0x0(%rax)
   1400020d8:	48 89 d9             	mov    %rbx,%rcx
   1400020db:	48 8b 5b 10          	mov    0x10(%rbx),%rbx
   1400020df:	e8 4c 08 00 00       	call   140002930 <free>
   1400020e4:	48 85 db             	test   %rbx,%rbx
   1400020e7:	75 ef                	jne    1400020d8 <__mingw_TLScallback+0x88>
   1400020e9:	48 8d 0d 10 50 00 00 	lea    0x5010(%rip),%rcx        # 140007100 <__mingwthr_cs>
   1400020f0:	48 c7 05 e5 4f 00 00 	movq   $0x0,0x4fe5(%rip)        # 1400070e0 <key_dtor_list>
   1400020f7:	00 00 00 00 
   1400020fb:	c7 05 e3 4f 00 00 00 	movl   $0x0,0x4fe3(%rip)        # 1400070e8 <__mingwthr_cs_init>
   140002102:	00 00 00 
   140002105:	ff 15 c1 61 00 00    	call   *0x61c1(%rip)        # 1400082cc <__IAT_start__>
   14000210b:	e9 6c ff ff ff       	jmp    14000207c <__mingw_TLScallback+0x2c>
   140002110:	e8 8b f6 ff ff       	call   1400017a0 <_fpreset>
   140002115:	b8 01 00 00 00       	mov    $0x1,%eax
   14000211a:	48 83 c4 20          	add    $0x20,%rsp
   14000211e:	5b                   	pop    %rbx
   14000211f:	c3                   	ret
   140002120:	e8 bb fd ff ff       	call   140001ee0 <__mingwthr_run_key_dtors.part.0>
   140002125:	eb 93                	jmp    1400020ba <__mingw_TLScallback+0x6a>
   140002127:	66 0f 1f 84 00 00 00 	nopw   0x0(%rax,%rax,1)
   14000212e:	00 00 
   140002130:	48 8d 0d c9 4f 00 00 	lea    0x4fc9(%rip),%rcx        # 140007100 <__mingwthr_cs>
   140002137:	ff 15 a7 61 00 00    	call   *0x61a7(%rip)        # 1400082e4 <__imp_InitializeCriticalSection>
   14000213d:	e9 30 ff ff ff       	jmp    140002072 <__mingw_TLScallback+0x22>
   140002142:	90                   	nop
   140002143:	90                   	nop
   140002144:	90                   	nop
   140002145:	90                   	nop
   140002146:	90                   	nop
   140002147:	90                   	nop
   140002148:	90                   	nop
   140002149:	90                   	nop
   14000214a:	90                   	nop
   14000214b:	90                   	nop
   14000214c:	90                   	nop
   14000214d:	90                   	nop
   14000214e:	90                   	nop
   14000214f:	90                   	nop

0000000140002150 <_ValidateImageBase>:
   140002150:	31 c0                	xor    %eax,%eax
   140002152:	66 81 39 4d 5a       	cmpw   $0x5a4d,(%rcx)
   140002157:	75 0f                	jne    140002168 <_ValidateImageBase+0x18>
   140002159:	48 63 51 3c          	movslq 0x3c(%rcx),%rdx
   14000215d:	48 01 d1             	add    %rdx,%rcx
   140002160:	81 39 50 45 00 00    	cmpl   $0x4550,(%rcx)
   140002166:	74 08                	je     140002170 <_ValidateImageBase+0x20>
   140002168:	c3                   	ret
   140002169:	0f 1f 80 00 00 00 00 	nopl   0x0(%rax)
   140002170:	31 c0                	xor    %eax,%eax
   140002172:	66 81 79 18 0b 02    	cmpw   $0x20b,0x18(%rcx)
   140002178:	0f 94 c0             	sete   %al
   14000217b:	c3                   	ret
   14000217c:	0f 1f 40 00          	nopl   0x0(%rax)

0000000140002180 <_FindPESection>:
   140002180:	48 63 41 3c          	movslq 0x3c(%rcx),%rax
   140002184:	48 01 c1             	add    %rax,%rcx
   140002187:	44 0f b7 41 06       	movzwl 0x6(%rcx),%r8d
   14000218c:	0f b7 41 14          	movzwl 0x14(%rcx),%eax
   140002190:	66 45 85 c0          	test   %r8w,%r8w
   140002194:	48 8d 44 01 18       	lea    0x18(%rcx,%rax,1),%rax
   140002199:	74 32                	je     1400021cd <_FindPESection+0x4d>
   14000219b:	41 8d 48 ff          	lea    -0x1(%r8),%ecx
   14000219f:	48 8d 0c 89          	lea    (%rcx,%rcx,4),%rcx
   1400021a3:	4c 8d 4c c8 28       	lea    0x28(%rax,%rcx,8),%r9
   1400021a8:	0f 1f 84 00 00 00 00 	nopl   0x0(%rax,%rax,1)
   1400021af:	00 
   1400021b0:	44 8b 40 0c          	mov    0xc(%rax),%r8d
   1400021b4:	4c 39 c2             	cmp    %r8,%rdx
   1400021b7:	4c 89 c1             	mov    %r8,%rcx
   1400021ba:	72 08                	jb     1400021c4 <_FindPESection+0x44>
   1400021bc:	03 48 08             	add    0x8(%rax),%ecx
   1400021bf:	48 39 ca             	cmp    %rcx,%rdx
   1400021c2:	72 0b                	jb     1400021cf <_FindPESection+0x4f>
   1400021c4:	48 83 c0 28          	add    $0x28,%rax
   1400021c8:	4c 39 c8             	cmp    %r9,%rax
   1400021cb:	75 e3                	jne    1400021b0 <_FindPESection+0x30>
   1400021cd:	31 c0                	xor    %eax,%eax
   1400021cf:	c3                   	ret

00000001400021d0 <_FindPESectionByName>:
   1400021d0:	57                   	push   %rdi
   1400021d1:	56                   	push   %rsi
   1400021d2:	53                   	push   %rbx
   1400021d3:	48 83 ec 20          	sub    $0x20,%rsp
   1400021d7:	48 89 ce             	mov    %rcx,%rsi
   1400021da:	e8 51 06 00 00       	call   140002830 <strlen>
   1400021df:	48 83 f8 08          	cmp    $0x8,%rax
   1400021e3:	77 7b                	ja     140002260 <_FindPESectionByName+0x90>
   1400021e5:	48 8b 15 04 22 00 00 	mov    0x2204(%rip),%rdx        # 1400043f0 <.refptr.__image_base__>
   1400021ec:	31 db                	xor    %ebx,%ebx
   1400021ee:	66 81 3a 4d 5a       	cmpw   $0x5a4d,(%rdx)
   1400021f3:	75 59                	jne    14000224e <_FindPESectionByName+0x7e>
   1400021f5:	48 63 42 3c          	movslq 0x3c(%rdx),%rax
   1400021f9:	48 01 d0             	add    %rdx,%rax
   1400021fc:	81 38 50 45 00 00    	cmpl   $0x4550,(%rax)
   140002202:	75 4a                	jne    14000224e <_FindPESectionByName+0x7e>
   140002204:	66 81 78 18 0b 02    	cmpw   $0x20b,0x18(%rax)
   14000220a:	75 42                	jne    14000224e <_FindPESectionByName+0x7e>
   14000220c:	0f b7 50 14          	movzwl 0x14(%rax),%edx
   140002210:	48 8d 5c 10 18       	lea    0x18(%rax,%rdx,1),%rbx
   140002215:	0f b7 50 06          	movzwl 0x6(%rax),%edx
   140002219:	66 85 d2             	test   %dx,%dx
   14000221c:	74 42                	je     140002260 <_FindPESectionByName+0x90>
   14000221e:	8d 42 ff             	lea    -0x1(%rdx),%eax
   140002221:	48 8d 04 80          	lea    (%rax,%rax,4),%rax
   140002225:	48 8d 7c c3 28       	lea    0x28(%rbx,%rax,8),%rdi
   14000222a:	eb 0d                	jmp    140002239 <_FindPESectionByName+0x69>
   14000222c:	0f 1f 40 00          	nopl   0x0(%rax)
   140002230:	48 83 c3 28          	add    $0x28,%rbx
   140002234:	48 39 fb             	cmp    %rdi,%rbx
   140002237:	74 27                	je     140002260 <_FindPESectionByName+0x90>
   140002239:	41 b8 08 00 00 00    	mov    $0x8,%r8d
   14000223f:	48 89 f2             	mov    %rsi,%rdx
   140002242:	48 89 d9             	mov    %rbx,%rcx
   140002245:	e8 ee 05 00 00       	call   140002838 <strncmp>
   14000224a:	85 c0                	test   %eax,%eax
   14000224c:	75 e2                	jne    140002230 <_FindPESectionByName+0x60>
   14000224e:	48 89 d8             	mov    %rbx,%rax
   140002251:	48 83 c4 20          	add    $0x20,%rsp
   140002255:	5b                   	pop    %rbx
   140002256:	5e                   	pop    %rsi
   140002257:	5f                   	pop    %rdi
   140002258:	c3                   	ret
   140002259:	0f 1f 80 00 00 00 00 	nopl   0x0(%rax)
   140002260:	31 db                	xor    %ebx,%ebx
   140002262:	48 89 d8             	mov    %rbx,%rax
   140002265:	48 83 c4 20          	add    $0x20,%rsp
   140002269:	5b                   	pop    %rbx
   14000226a:	5e                   	pop    %rsi
   14000226b:	5f                   	pop    %rdi
   14000226c:	c3                   	ret
   14000226d:	0f 1f 00             	nopl   (%rax)

0000000140002270 <__mingw_GetSectionForAddress>:
   140002270:	48 8b 15 79 21 00 00 	mov    0x2179(%rip),%rdx        # 1400043f0 <.refptr.__image_base__>
   140002277:	31 c0                	xor    %eax,%eax
   140002279:	66 81 3a 4d 5a       	cmpw   $0x5a4d,(%rdx)
   14000227e:	75 10                	jne    140002290 <__mingw_GetSectionForAddress+0x20>
   140002280:	4c 63 42 3c          	movslq 0x3c(%rdx),%r8
   140002284:	49 01 d0             	add    %rdx,%r8
   140002287:	41 81 38 50 45 00 00 	cmpl   $0x4550,(%r8)
   14000228e:	74 08                	je     140002298 <__mingw_GetSectionForAddress+0x28>
   140002290:	c3                   	ret
   140002291:	0f 1f 80 00 00 00 00 	nopl   0x0(%rax)
   140002298:	66 41 81 78 18 0b 02 	cmpw   $0x20b,0x18(%r8)
   14000229f:	75 ef                	jne    140002290 <__mingw_GetSectionForAddress+0x20>
   1400022a1:	41 0f b7 40 14       	movzwl 0x14(%r8),%eax
   1400022a6:	48 29 d1             	sub    %rdx,%rcx
   1400022a9:	49 8d 44 00 18       	lea    0x18(%r8,%rax,1),%rax
   1400022ae:	45 0f b7 40 06       	movzwl 0x6(%r8),%r8d
   1400022b3:	66 45 85 c0          	test   %r8w,%r8w
   1400022b7:	74 34                	je     1400022ed <__mingw_GetSectionForAddress+0x7d>
   1400022b9:	41 8d 50 ff          	lea    -0x1(%r8),%edx
   1400022bd:	48 8d 14 92          	lea    (%rdx,%rdx,4),%rdx
   1400022c1:	4c 8d 4c d0 28       	lea    0x28(%rax,%rdx,8),%r9
   1400022c6:	66 2e 0f 1f 84 00 00 	cs nopw 0x0(%rax,%rax,1)
   1400022cd:	00 00 00 
   1400022d0:	44 8b 40 0c          	mov    0xc(%rax),%r8d
   1400022d4:	4c 39 c1             	cmp    %r8,%rcx
   1400022d7:	4c 89 c2             	mov    %r8,%rdx
   1400022da:	72 08                	jb     1400022e4 <__mingw_GetSectionForAddress+0x74>
   1400022dc:	03 50 08             	add    0x8(%rax),%edx
   1400022df:	48 39 d1             	cmp    %rdx,%rcx
   1400022e2:	72 ac                	jb     140002290 <__mingw_GetSectionForAddress+0x20>
   1400022e4:	48 83 c0 28          	add    $0x28,%rax
   1400022e8:	4c 39 c8             	cmp    %r9,%rax
   1400022eb:	75 e3                	jne    1400022d0 <__mingw_GetSectionForAddress+0x60>
   1400022ed:	31 c0                	xor    %eax,%eax
   1400022ef:	c3                   	ret

00000001400022f0 <__mingw_GetSectionCount>:
   1400022f0:	48 8b 05 f9 20 00 00 	mov    0x20f9(%rip),%rax        # 1400043f0 <.refptr.__image_base__>
   1400022f7:	31 c9                	xor    %ecx,%ecx
   1400022f9:	66 81 38 4d 5a       	cmpw   $0x5a4d,(%rax)
   1400022fe:	75 0f                	jne    14000230f <__mingw_GetSectionCount+0x1f>
   140002300:	48 63 50 3c          	movslq 0x3c(%rax),%rdx
   140002304:	48 01 d0             	add    %rdx,%rax
   140002307:	81 38 50 45 00 00    	cmpl   $0x4550,(%rax)
   14000230d:	74 09                	je     140002318 <__mingw_GetSectionCount+0x28>
   14000230f:	89 c8                	mov    %ecx,%eax
   140002311:	c3                   	ret
   140002312:	66 0f 1f 44 00 00    	nopw   0x0(%rax,%rax,1)
   140002318:	66 81 78 18 0b 02    	cmpw   $0x20b,0x18(%rax)
   14000231e:	75 ef                	jne    14000230f <__mingw_GetSectionCount+0x1f>
   140002320:	0f b7 48 06          	movzwl 0x6(%rax),%ecx
   140002324:	89 c8                	mov    %ecx,%eax
   140002326:	c3                   	ret
   140002327:	66 0f 1f 84 00 00 00 	nopw   0x0(%rax,%rax,1)
   14000232e:	00 00 

0000000140002330 <_FindPESectionExec>:
   140002330:	4c 8b 05 b9 20 00 00 	mov    0x20b9(%rip),%r8        # 1400043f0 <.refptr.__image_base__>
   140002337:	31 c0                	xor    %eax,%eax
   140002339:	66 41 81 38 4d 5a    	cmpw   $0x5a4d,(%r8)
   14000233f:	75 0f                	jne    140002350 <_FindPESectionExec+0x20>
   140002341:	49 63 50 3c          	movslq 0x3c(%r8),%rdx
   140002345:	4c 01 c2             	add    %r8,%rdx
   140002348:	81 3a 50 45 00 00    	cmpl   $0x4550,(%rdx)
   14000234e:	74 08                	je     140002358 <_FindPESectionExec+0x28>
   140002350:	c3                   	ret
   140002351:	0f 1f 80 00 00 00 00 	nopl   0x0(%rax)
   140002358:	66 81 7a 18 0b 02    	cmpw   $0x20b,0x18(%rdx)
   14000235e:	75 f0                	jne    140002350 <_FindPESectionExec+0x20>
   140002360:	44 0f b7 42 06       	movzwl 0x6(%rdx),%r8d
   140002365:	0f b7 42 14          	movzwl 0x14(%rdx),%eax
   140002369:	66 45 85 c0          	test   %r8w,%r8w
   14000236d:	48 8d 44 02 18       	lea    0x18(%rdx,%rax,1),%rax
   140002372:	74 2c                	je     1400023a0 <_FindPESectionExec+0x70>
   140002374:	41 8d 50 ff          	lea    -0x1(%r8),%edx
   140002378:	48 8d 14 92          	lea    (%rdx,%rdx,4),%rdx
   14000237c:	48 8d 54 d0 28       	lea    0x28(%rax,%rdx,8),%rdx
   140002381:	0f 1f 80 00 00 00 00 	nopl   0x0(%rax)
   140002388:	f6 40 27 20          	testb  $0x20,0x27(%rax)
   14000238c:	74 09                	je     140002397 <_FindPESectionExec+0x67>
   14000238e:	48 85 c9             	test   %rcx,%rcx
   140002391:	74 bd                	je     140002350 <_FindPESectionExec+0x20>
   140002393:	48 83 e9 01          	sub    $0x1,%rcx
   140002397:	48 83 c0 28          	add    $0x28,%rax
   14000239b:	48 39 d0             	cmp    %rdx,%rax
   14000239e:	75 e8                	jne    140002388 <_FindPESectionExec+0x58>
   1400023a0:	31 c0                	xor    %eax,%eax
   1400023a2:	c3                   	ret
   1400023a3:	66 66 2e 0f 1f 84 00 	data16 cs nopw 0x0(%rax,%rax,1)
   1400023aa:	00 00 00 00 
   1400023ae:	66 90                	xchg   %ax,%ax

00000001400023b0 <_GetPEImageBase>:
   1400023b0:	48 8b 05 39 20 00 00 	mov    0x2039(%rip),%rax        # 1400043f0 <.refptr.__image_base__>
   1400023b7:	31 d2                	xor    %edx,%edx
   1400023b9:	66 81 38 4d 5a       	cmpw   $0x5a4d,(%rax)
   1400023be:	75 0f                	jne    1400023cf <_GetPEImageBase+0x1f>
   1400023c0:	48 63 48 3c          	movslq 0x3c(%rax),%rcx
   1400023c4:	48 01 c1             	add    %rax,%rcx
   1400023c7:	81 39 50 45 00 00    	cmpl   $0x4550,(%rcx)
   1400023cd:	74 09                	je     1400023d8 <_GetPEImageBase+0x28>
   1400023cf:	48 89 d0             	mov    %rdx,%rax
   1400023d2:	c3                   	ret
   1400023d3:	0f 1f 44 00 00       	nopl   0x0(%rax,%rax,1)
   1400023d8:	66 81 79 18 0b 02    	cmpw   $0x20b,0x18(%rcx)
   1400023de:	48 0f 44 d0          	cmove  %rax,%rdx
   1400023e2:	48 89 d0             	mov    %rdx,%rax
   1400023e5:	c3                   	ret
   1400023e6:	66 2e 0f 1f 84 00 00 	cs nopw 0x0(%rax,%rax,1)
   1400023ed:	00 00 00 

00000001400023f0 <_IsNonwritableInCurrentImage>:
   1400023f0:	48 8b 15 f9 1f 00 00 	mov    0x1ff9(%rip),%rdx        # 1400043f0 <.refptr.__image_base__>
   1400023f7:	31 c0                	xor    %eax,%eax
   1400023f9:	66 81 3a 4d 5a       	cmpw   $0x5a4d,(%rdx)
   1400023fe:	75 10                	jne    140002410 <_IsNonwritableInCurrentImage+0x20>
   140002400:	4c 63 42 3c          	movslq 0x3c(%rdx),%r8
   140002404:	49 01 d0             	add    %rdx,%r8
   140002407:	41 81 38 50 45 00 00 	cmpl   $0x4550,(%r8)
   14000240e:	74 08                	je     140002418 <_IsNonwritableInCurrentImage+0x28>
   140002410:	c3                   	ret
   140002411:	0f 1f 80 00 00 00 00 	nopl   0x0(%rax)
   140002418:	66 41 81 78 18 0b 02 	cmpw   $0x20b,0x18(%r8)
   14000241f:	75 ef                	jne    140002410 <_IsNonwritableInCurrentImage+0x20>
   140002421:	45 0f b7 48 06       	movzwl 0x6(%r8),%r9d
   140002426:	48 29 d1             	sub    %rdx,%rcx
   140002429:	41 0f b7 50 14       	movzwl 0x14(%r8),%edx
   14000242e:	66 45 85 c9          	test   %r9w,%r9w
   140002432:	49 8d 54 10 18       	lea    0x18(%r8,%rdx,1),%rdx
   140002437:	74 d7                	je     140002410 <_IsNonwritableInCurrentImage+0x20>
   140002439:	41 8d 41 ff          	lea    -0x1(%r9),%eax
   14000243d:	48 8d 04 80          	lea    (%rax,%rax,4),%rax
   140002441:	4c 8d 4c c2 28       	lea    0x28(%rdx,%rax,8),%r9
   140002446:	66 2e 0f 1f 84 00 00 	cs nopw 0x0(%rax,%rax,1)
   14000244d:	00 00 00 
   140002450:	44 8b 42 0c          	mov    0xc(%rdx),%r8d
   140002454:	4c 39 c1             	cmp    %r8,%rcx
   140002457:	4c 89 c0             	mov    %r8,%rax
   14000245a:	72 08                	jb     140002464 <_IsNonwritableInCurrentImage+0x74>
   14000245c:	03 42 08             	add    0x8(%rdx),%eax
   14000245f:	48 39 c1             	cmp    %rax,%rcx
   140002462:	72 0c                	jb     140002470 <_IsNonwritableInCurrentImage+0x80>
   140002464:	48 83 c2 28          	add    $0x28,%rdx
   140002468:	49 39 d1             	cmp    %rdx,%r9
   14000246b:	75 e3                	jne    140002450 <_IsNonwritableInCurrentImage+0x60>
   14000246d:	31 c0                	xor    %eax,%eax
   14000246f:	c3                   	ret
   140002470:	8b 42 24             	mov    0x24(%rdx),%eax
   140002473:	f7 d0                	not    %eax
   140002475:	c1 e8 1f             	shr    $0x1f,%eax
   140002478:	c3                   	ret
   140002479:	0f 1f 80 00 00 00 00 	nopl   0x0(%rax)

0000000140002480 <__mingw_enum_import_library_names>:
   140002480:	4c 8b 1d 69 1f 00 00 	mov    0x1f69(%rip),%r11        # 1400043f0 <.refptr.__image_base__>
   140002487:	45 31 c9             	xor    %r9d,%r9d
   14000248a:	66 41 81 3b 4d 5a    	cmpw   $0x5a4d,(%r11)
   140002490:	75 10                	jne    1400024a2 <__mingw_enum_import_library_names+0x22>
   140002492:	4d 63 43 3c          	movslq 0x3c(%r11),%r8
   140002496:	4d 01 d8             	add    %r11,%r8
   140002499:	41 81 38 50 45 00 00 	cmpl   $0x4550,(%r8)
   1400024a0:	74 0e                	je     1400024b0 <__mingw_enum_import_library_names+0x30>
   1400024a2:	4c 89 c8             	mov    %r9,%rax
   1400024a5:	c3                   	ret
   1400024a6:	66 2e 0f 1f 84 00 00 	cs nopw 0x0(%rax,%rax,1)
   1400024ad:	00 00 00 
   1400024b0:	66 41 81 78 18 0b 02 	cmpw   $0x20b,0x18(%r8)
   1400024b7:	75 e9                	jne    1400024a2 <__mingw_enum_import_library_names+0x22>
   1400024b9:	41 8b 80 90 00 00 00 	mov    0x90(%r8),%eax
   1400024c0:	85 c0                	test   %eax,%eax
   1400024c2:	74 de                	je     1400024a2 <__mingw_enum_import_library_names+0x22>
   1400024c4:	45 0f b7 50 06       	movzwl 0x6(%r8),%r10d
   1400024c9:	41 0f b7 50 14       	movzwl 0x14(%r8),%edx
   1400024ce:	66 45 85 d2          	test   %r10w,%r10w
   1400024d2:	49 8d 54 10 18       	lea    0x18(%r8,%rdx,1),%rdx
   1400024d7:	74 c9                	je     1400024a2 <__mingw_enum_import_library_names+0x22>
   1400024d9:	45 8d 42 ff          	lea    -0x1(%r10),%r8d
   1400024dd:	4f 8d 04 80          	lea    (%r8,%r8,4),%r8
   1400024e1:	4e 8d 54 c2 28       	lea    0x28(%rdx,%r8,8),%r10
   1400024e6:	66 2e 0f 1f 84 00 00 	cs nopw 0x0(%rax,%rax,1)
   1400024ed:	00 00 00 
   1400024f0:	44 8b 4a 0c          	mov    0xc(%rdx),%r9d
   1400024f4:	4c 39 c8             	cmp    %r9,%rax
   1400024f7:	4d 89 c8             	mov    %r9,%r8
   1400024fa:	72 09                	jb     140002505 <__mingw_enum_import_library_names+0x85>
   1400024fc:	44 03 42 08          	add    0x8(%rdx),%r8d
   140002500:	4c 39 c0             	cmp    %r8,%rax
   140002503:	72 13                	jb     140002518 <__mingw_enum_import_library_names+0x98>
   140002505:	48 83 c2 28          	add    $0x28,%rdx
   140002509:	4c 39 d2             	cmp    %r10,%rdx
   14000250c:	75 e2                	jne    1400024f0 <__mingw_enum_import_library_names+0x70>
   14000250e:	45 31 c9             	xor    %r9d,%r9d
   140002511:	4c 89 c8             	mov    %r9,%rax
   140002514:	c3                   	ret
   140002515:	0f 1f 00             	nopl   (%rax)
   140002518:	4c 01 d8             	add    %r11,%rax
   14000251b:	eb 0a                	jmp    140002527 <__mingw_enum_import_library_names+0xa7>
   14000251d:	0f 1f 00             	nopl   (%rax)
   140002520:	83 e9 01             	sub    $0x1,%ecx
   140002523:	48 83 c0 14          	add    $0x14,%rax
   140002527:	44 8b 40 04          	mov    0x4(%rax),%r8d
   14000252b:	45 85 c0             	test   %r8d,%r8d
   14000252e:	75 07                	jne    140002537 <__mingw_enum_import_library_names+0xb7>
   140002530:	8b 50 0c             	mov    0xc(%rax),%edx
   140002533:	85 d2                	test   %edx,%edx
   140002535:	74 d7                	je     14000250e <__mingw_enum_import_library_names+0x8e>
   140002537:	85 c9                	test   %ecx,%ecx
   140002539:	7f e5                	jg     140002520 <__mingw_enum_import_library_names+0xa0>
   14000253b:	44 8b 48 0c          	mov    0xc(%rax),%r9d
   14000253f:	4d 01 d9             	add    %r11,%r9
   140002542:	4c 89 c8             	mov    %r9,%rax
   140002545:	c3                   	ret
   140002546:	90                   	nop
   140002547:	90                   	nop
   140002548:	90                   	nop
   140002549:	90                   	nop
   14000254a:	90                   	nop
   14000254b:	90                   	nop
   14000254c:	90                   	nop
   14000254d:	90                   	nop
   14000254e:	90                   	nop
   14000254f:	90                   	nop

0000000140002550 <___chkstk_ms>:
   140002550:	51                   	push   %rcx
   140002551:	50                   	push   %rax
   140002552:	48 3d 00 10 00 00    	cmp    $0x1000,%rax
   140002558:	48 8d 4c 24 18       	lea    0x18(%rsp),%rcx
   14000255d:	72 19                	jb     140002578 <___chkstk_ms+0x28>
   14000255f:	48 81 e9 00 10 00 00 	sub    $0x1000,%rcx
   140002566:	48 83 09 00          	orq    $0x0,(%rcx)
   14000256a:	48 2d 00 10 00 00    	sub    $0x1000,%rax
   140002570:	48 3d 00 10 00 00    	cmp    $0x1000,%rax
   140002576:	77 e7                	ja     14000255f <___chkstk_ms+0xf>
   140002578:	48 29 c1             	sub    %rax,%rcx
   14000257b:	48 83 09 00          	orq    $0x0,(%rcx)
   14000257f:	58                   	pop    %rax
   140002580:	59                   	pop    %rcx
   140002581:	c3                   	ret
   140002582:	90                   	nop
   140002583:	90                   	nop
   140002584:	90                   	nop
   140002585:	90                   	nop
   140002586:	90                   	nop
   140002587:	90                   	nop
   140002588:	90                   	nop
   140002589:	90                   	nop
   14000258a:	90                   	nop
   14000258b:	90                   	nop
   14000258c:	90                   	nop
   14000258d:	90                   	nop
   14000258e:	90                   	nop
   14000258f:	90                   	nop

0000000140002590 <vfprintf>:
   140002590:	48 83 ec 38          	sub    $0x38,%rsp
   140002594:	45 31 c9             	xor    %r9d,%r9d
   140002597:	4c 89 44 24 20       	mov    %r8,0x20(%rsp)
   14000259c:	49 89 d0             	mov    %rdx,%r8
   14000259f:	48 89 ca             	mov    %rcx,%rdx
   1400025a2:	31 c9                	xor    %ecx,%ecx
   1400025a4:	e8 af 02 00 00       	call   140002858 <__stdio_common_vfprintf>
   1400025a9:	48 83 c4 38          	add    $0x38,%rsp
   1400025ad:	c3                   	ret
   1400025ae:	90                   	nop
   1400025af:	90                   	nop

00000001400025b0 <fprintf>:
   1400025b0:	48 83 ec 48          	sub    $0x48,%rsp
   1400025b4:	48 8d 44 24 60       	lea    0x60(%rsp),%rax
   1400025b9:	4c 89 44 24 60       	mov    %r8,0x60(%rsp)
   1400025be:	49 89 d0             	mov    %rdx,%r8
   1400025c1:	48 89 ca             	mov    %rcx,%rdx
   1400025c4:	4c 89 4c 24 68       	mov    %r9,0x68(%rsp)
   1400025c9:	31 c9                	xor    %ecx,%ecx
   1400025cb:	45 31 c9             	xor    %r9d,%r9d
   1400025ce:	48 89 44 24 20       	mov    %rax,0x20(%rsp)
   1400025d3:	48 89 44 24 38       	mov    %rax,0x38(%rsp)
   1400025d8:	e8 7b 02 00 00       	call   140002858 <__stdio_common_vfprintf>
   1400025dd:	48 83 c4 48          	add    $0x48,%rsp
   1400025e1:	c3                   	ret
   1400025e2:	90                   	nop
   1400025e3:	90                   	nop
   1400025e4:	90                   	nop
   1400025e5:	90                   	nop
   1400025e6:	90                   	nop
   1400025e7:	90                   	nop
   1400025e8:	90                   	nop
   1400025e9:	90                   	nop
   1400025ea:	90                   	nop
   1400025eb:	90                   	nop
   1400025ec:	90                   	nop
   1400025ed:	90                   	nop
   1400025ee:	90                   	nop
   1400025ef:	90                   	nop

00000001400025f0 <_get_output_format>:
   1400025f0:	31 c0                	xor    %eax,%eax
   1400025f2:	c3                   	ret
   1400025f3:	66 66 2e 0f 1f 84 00 	data16 cs nopw 0x0(%rax,%rax,1)
   1400025fa:	00 00 00 00 
   1400025fe:	66 90                	xchg   %ax,%ax

0000000140002600 <__getmainargs>:
   140002600:	41 54                	push   %r12
   140002602:	55                   	push   %rbp
   140002603:	57                   	push   %rdi
   140002604:	56                   	push   %rsi
   140002605:	53                   	push   %rbx
   140002606:	48 83 ec 20          	sub    $0x20,%rsp
   14000260a:	4c 8b 64 24 70       	mov    0x70(%rsp),%r12
   14000260f:	44 89 cd             	mov    %r9d,%ebp
   140002612:	48 89 d6             	mov    %rdx,%rsi
   140002615:	4c 89 c3             	mov    %r8,%rbx
   140002618:	48 89 cf             	mov    %rcx,%rdi
   14000261b:	e8 98 02 00 00       	call   1400028b8 <_initialize_narrow_environment>
   140002620:	83 fd 01             	cmp    $0x1,%ebp
   140002623:	b9 01 00 00 00       	mov    $0x1,%ecx
   140002628:	83 d9 ff             	sbb    $0xffffffff,%ecx
   14000262b:	e8 60 02 00 00       	call   140002890 <_configure_narrow_argv>
   140002630:	e8 3b 02 00 00       	call   140002870 <__p___argc>
   140002635:	8b 00                	mov    (%rax),%eax
   140002637:	89 07                	mov    %eax,(%rdi)
   140002639:	e8 3a 02 00 00       	call   140002878 <__p___argv>
   14000263e:	48 8b 00             	mov    (%rax),%rax
   140002641:	48 89 06             	mov    %rax,(%rsi)
   140002644:	e8 f7 02 00 00       	call   140002940 <__p__environ>
   140002649:	4d 85 e4             	test   %r12,%r12
   14000264c:	48 8b 00             	mov    (%rax),%rax
   14000264f:	48 89 03             	mov    %rax,(%rbx)
   140002652:	74 09                	je     14000265d <__getmainargs+0x5d>
   140002654:	41 8b 0c 24          	mov    (%r12),%ecx
   140002658:	e8 c3 02 00 00       	call   140002920 <_set_new_mode>
   14000265d:	31 c0                	xor    %eax,%eax
   14000265f:	48 83 c4 20          	add    $0x20,%rsp
   140002663:	5b                   	pop    %rbx
   140002664:	5e                   	pop    %rsi
   140002665:	5f                   	pop    %rdi
   140002666:	5d                   	pop    %rbp
   140002667:	41 5c                	pop    %r12
   140002669:	c3                   	ret
   14000266a:	66 0f 1f 44 00 00    	nopw   0x0(%rax,%rax,1)

0000000140002670 <__wgetmainargs>:
   140002670:	41 54                	push   %r12
   140002672:	55                   	push   %rbp
   140002673:	57                   	push   %rdi
   140002674:	56                   	push   %rsi
   140002675:	53                   	push   %rbx
   140002676:	48 83 ec 20          	sub    $0x20,%rsp
   14000267a:	4c 8b 64 24 70       	mov    0x70(%rsp),%r12
   14000267f:	44 89 cd             	mov    %r9d,%ebp
   140002682:	48 89 d6             	mov    %rdx,%rsi
   140002685:	4c 89 c3             	mov    %r8,%rbx
   140002688:	48 89 cf             	mov    %rcx,%rdi
   14000268b:	e8 30 02 00 00       	call   1400028c0 <_initialize_wide_environment>
   140002690:	83 fd 01             	cmp    $0x1,%ebp
   140002693:	b9 01 00 00 00       	mov    $0x1,%ecx
   140002698:	83 d9 ff             	sbb    $0xffffffff,%ecx
   14000269b:	e8 f8 01 00 00       	call   140002898 <_configure_wide_argv>
   1400026a0:	e8 cb 01 00 00       	call   140002870 <__p___argc>
   1400026a5:	8b 00                	mov    (%rax),%eax
   1400026a7:	89 07                	mov    %eax,(%rdi)
   1400026a9:	e8 d2 01 00 00       	call   140002880 <__p___wargv>
   1400026ae:	48 8b 00             	mov    (%rax),%rax
   1400026b1:	48 89 06             	mov    %rax,(%rsi)
   1400026b4:	e8 8f 02 00 00       	call   140002948 <__p__wenviron>
   1400026b9:	4d 85 e4             	test   %r12,%r12
   1400026bc:	48 8b 00             	mov    (%rax),%rax
   1400026bf:	48 89 03             	mov    %rax,(%rbx)
   1400026c2:	74 09                	je     1400026cd <__wgetmainargs+0x5d>
   1400026c4:	41 8b 0c 24          	mov    (%r12),%ecx
   1400026c8:	e8 53 02 00 00       	call   140002920 <_set_new_mode>
   1400026cd:	31 c0                	xor    %eax,%eax
   1400026cf:	48 83 c4 20          	add    $0x20,%rsp
   1400026d3:	5b                   	pop    %rbx
   1400026d4:	5e                   	pop    %rsi
   1400026d5:	5f                   	pop    %rdi
   1400026d6:	5d                   	pop    %rbp
   1400026d7:	41 5c                	pop    %r12
   1400026d9:	c3                   	ret
   1400026da:	66 0f 1f 44 00 00    	nopw   0x0(%rax,%rax,1)

00000001400026e0 <_onexit>:
   1400026e0:	53                   	push   %rbx
   1400026e1:	48 83 ec 20          	sub    $0x20,%rsp
   1400026e5:	48 89 cb             	mov    %rcx,%rbx
   1400026e8:	e8 bb 01 00 00       	call   1400028a8 <_crt_atexit>
   1400026ed:	85 c0                	test   %eax,%eax
   1400026ef:	b8 00 00 00 00       	mov    $0x0,%eax
   1400026f4:	48 0f 44 c3          	cmove  %rbx,%rax
   1400026f8:	48 83 c4 20          	add    $0x20,%rsp
   1400026fc:	5b                   	pop    %rbx
   1400026fd:	c3                   	ret
   1400026fe:	66 90                	xchg   %ax,%ax

0000000140002700 <at_quick_exit>:
   140002700:	48 8b 05 59 1d 00 00 	mov    0x1d59(%rip),%rax        # 140004460 <.refptr.__mingw_module_is_dll>
   140002707:	80 38 00             	cmpb   $0x0,(%rax)
   14000270a:	74 04                	je     140002710 <at_quick_exit+0x10>
   14000270c:	31 c0                	xor    %eax,%eax
   14000270e:	c3                   	ret
   14000270f:	90                   	nop
   140002710:	e9 8b 01 00 00       	jmp    1400028a0 <_crt_at_quick_exit>
   140002715:	66 66 2e 0f 1f 84 00 	data16 cs nopw 0x0(%rax,%rax,1)
   14000271c:	00 00 00 00 

0000000140002720 <_amsg_exit>:
   140002720:	53                   	push   %rbx
   140002721:	48 83 ec 20          	sub    $0x20,%rsp
   140002725:	89 cb                	mov    %ecx,%ebx
   140002727:	b9 02 00 00 00       	mov    $0x2,%ecx
   14000272c:	e8 0f 01 00 00       	call   140002840 <__acrt_iob_func>
   140002731:	48 8d 15 18 1c 00 00 	lea    0x1c18(%rip),%rdx        # 140004350 <.rdata>
   140002738:	41 89 d8             	mov    %ebx,%r8d
   14000273b:	48 89 c1             	mov    %rax,%rcx
   14000273e:	e8 6d fe ff ff       	call   1400025b0 <fprintf>
   140002743:	b9 ff 00 00 00       	mov    $0xff,%ecx
   140002748:	e8 63 01 00 00       	call   1400028b0 <_exit>
   14000274d:	90                   	nop
   14000274e:	66 90                	xchg   %ax,%ax

0000000140002750 <__ms_fwprintf>:
   140002750:	48 83 ec 48          	sub    $0x48,%rsp
   140002754:	48 8d 44 24 60       	lea    0x60(%rsp),%rax
   140002759:	4c 89 44 24 60       	mov    %r8,0x60(%rsp)
   14000275e:	49 89 d0             	mov    %rdx,%r8
   140002761:	48 89 ca             	mov    %rcx,%rdx
   140002764:	4c 89 4c 24 68       	mov    %r9,0x68(%rsp)
   140002769:	b9 04 00 00 00       	mov    $0x4,%ecx
   14000276e:	45 31 c9             	xor    %r9d,%r9d
   140002771:	48 89 44 24 20       	mov    %rax,0x20(%rsp)
   140002776:	48 89 44 24 38       	mov    %rax,0x38(%rsp)
   14000277b:	e8 e0 00 00 00       	call   140002860 <__stdio_common_vfwprintf>
   140002780:	48 83 c4 48          	add    $0x48,%rsp
   140002784:	c3                   	ret
   140002785:	66 66 2e 0f 1f 84 00 	data16 cs nopw 0x0(%rax,%rax,1)
   14000278c:	00 00 00 00 

0000000140002790 <tzset>:
   140002790:	48 83 ec 28          	sub    $0x28,%rsp
   140002794:	48 8b 05 75 1c 00 00 	mov    0x1c75(%rip),%rax        # 140004410 <.refptr.__imp__tzset>
   14000279b:	ff 10                	call   *(%rax)
   14000279d:	e8 7e 00 00 00       	call   140002820 <__tzname>
   1400027a2:	48 89 05 17 09 00 00 	mov    %rax,0x917(%rip)        # 1400030c0 <__imp_tzname>
   1400027a9:	e8 6a 00 00 00       	call   140002818 <__timezone>
   1400027ae:	48 89 05 03 09 00 00 	mov    %rax,0x903(%rip)        # 1400030b8 <__imp_timezone>
   1400027b5:	e8 56 00 00 00       	call   140002810 <__daylight>
   1400027ba:	48 89 05 ef 08 00 00 	mov    %rax,0x8ef(%rip)        # 1400030b0 <__imp_daylight>
   1400027c1:	48 83 c4 28          	add    $0x28,%rsp
   1400027c5:	c3                   	ret
   1400027c6:	66 2e 0f 1f 84 00 00 	cs nopw 0x0(%rax,%rax,1)
   1400027cd:	00 00 00 

00000001400027d0 <_tzset>:
   1400027d0:	48 83 ec 28          	sub    $0x28,%rsp
   1400027d4:	48 8b 05 35 1c 00 00 	mov    0x1c35(%rip),%rax        # 140004410 <.refptr.__imp__tzset>
   1400027db:	ff 10                	call   *(%rax)
   1400027dd:	e8 3e 00 00 00       	call   140002820 <__tzname>
   1400027e2:	48 89 05 d7 08 00 00 	mov    %rax,0x8d7(%rip)        # 1400030c0 <__imp_tzname>
   1400027e9:	e8 2a 00 00 00       	call   140002818 <__timezone>
   1400027ee:	48 89 05 c3 08 00 00 	mov    %rax,0x8c3(%rip)        # 1400030b8 <__imp_timezone>
   1400027f5:	e8 16 00 00 00       	call   140002810 <__daylight>
   1400027fa:	48 89 05 af 08 00 00 	mov    %rax,0x8af(%rip)        # 1400030b0 <__imp_daylight>
   140002801:	48 83 c4 28          	add    $0x28,%rsp
   140002805:	c3                   	ret
   140002806:	90                   	nop
   140002807:	90                   	nop
   140002808:	90                   	nop
   140002809:	90                   	nop
   14000280a:	90                   	nop
   14000280b:	90                   	nop
   14000280c:	90                   	nop
   14000280d:	90                   	nop
   14000280e:	90                   	nop
   14000280f:	90                   	nop

0000000140002810 <__daylight>:
   140002810:	ff 25 56 5c 00 00    	jmp    *0x5c56(%rip)        # 14000846c <__imp___daylight>
   140002816:	90                   	nop
   140002817:	90                   	nop

0000000140002818 <__timezone>:
   140002818:	ff 25 56 5c 00 00    	jmp    *0x5c56(%rip)        # 140008474 <__imp___timezone>
   14000281e:	90                   	nop
   14000281f:	90                   	nop

0000000140002820 <__tzname>:
   140002820:	ff 25 56 5c 00 00    	jmp    *0x5c56(%rip)        # 14000847c <__imp___tzname>
   140002826:	90                   	nop
   140002827:	90                   	nop

0000000140002828 <.text>:
   140002828:	0f 1f 84 00 00 00 00 	nopl   0x0(%rax,%rax,1)
   14000282f:	00 

0000000140002830 <strlen>:
   140002830:	ff 25 1e 5c 00 00    	jmp    *0x5c1e(%rip)        # 140008454 <__imp_strlen>
   140002836:	90                   	nop
   140002837:	90                   	nop

0000000140002838 <strncmp>:
   140002838:	ff 25 1e 5c 00 00    	jmp    *0x5c1e(%rip)        # 14000845c <__imp_strncmp>
   14000283e:	90                   	nop
   14000283f:	90                   	nop

0000000140002840 <__acrt_iob_func>:
   140002840:	ff 25 d6 5b 00 00    	jmp    *0x5bd6(%rip)        # 14000841c <__imp___acrt_iob_func>
   140002846:	90                   	nop
   140002847:	90                   	nop

0000000140002848 <__p__commode>:
   140002848:	ff 25 d6 5b 00 00    	jmp    *0x5bd6(%rip)        # 140008424 <__imp___p__commode>
   14000284e:	90                   	nop
   14000284f:	90                   	nop

0000000140002850 <__p__fmode>:
   140002850:	ff 25 d6 5b 00 00    	jmp    *0x5bd6(%rip)        # 14000842c <__imp___p__fmode>
   140002856:	90                   	nop
   140002857:	90                   	nop

0000000140002858 <__stdio_common_vfprintf>:
   140002858:	ff 25 d6 5b 00 00    	jmp    *0x5bd6(%rip)        # 140008434 <__imp___stdio_common_vfprintf>
   14000285e:	90                   	nop
   14000285f:	90                   	nop

0000000140002860 <__stdio_common_vfwprintf>:
   140002860:	ff 25 d6 5b 00 00    	jmp    *0x5bd6(%rip)        # 14000843c <__imp___stdio_common_vfwprintf>
   140002866:	90                   	nop
   140002867:	90                   	nop

0000000140002868 <fwrite>:
   140002868:	ff 25 d6 5b 00 00    	jmp    *0x5bd6(%rip)        # 140008444 <__imp_fwrite>
   14000286e:	90                   	nop
   14000286f:	90                   	nop

0000000140002870 <__p___argc>:
   140002870:	ff 25 16 5b 00 00    	jmp    *0x5b16(%rip)        # 14000838c <__imp___p___argc>
   140002876:	90                   	nop
   140002877:	90                   	nop

0000000140002878 <__p___argv>:
   140002878:	ff 25 16 5b 00 00    	jmp    *0x5b16(%rip)        # 140008394 <__imp___p___argv>
   14000287e:	90                   	nop
   14000287f:	90                   	nop

0000000140002880 <__p___wargv>:
   140002880:	ff 25 16 5b 00 00    	jmp    *0x5b16(%rip)        # 14000839c <__imp___p___wargv>
   140002886:	90                   	nop
   140002887:	90                   	nop

0000000140002888 <_cexit>:
   140002888:	ff 25 16 5b 00 00    	jmp    *0x5b16(%rip)        # 1400083a4 <__imp__cexit>
   14000288e:	90                   	nop
   14000288f:	90                   	nop

0000000140002890 <_configure_narrow_argv>:
   140002890:	ff 25 16 5b 00 00    	jmp    *0x5b16(%rip)        # 1400083ac <__imp__configure_narrow_argv>
   140002896:	90                   	nop
   140002897:	90                   	nop

0000000140002898 <_configure_wide_argv>:
   140002898:	ff 25 16 5b 00 00    	jmp    *0x5b16(%rip)        # 1400083b4 <__imp__configure_wide_argv>
   14000289e:	90                   	nop
   14000289f:	90                   	nop

00000001400028a0 <_crt_at_quick_exit>:
   1400028a0:	ff 25 16 5b 00 00    	jmp    *0x5b16(%rip)        # 1400083bc <__imp__crt_at_quick_exit>
   1400028a6:	90                   	nop
   1400028a7:	90                   	nop

00000001400028a8 <_crt_atexit>:
   1400028a8:	ff 25 16 5b 00 00    	jmp    *0x5b16(%rip)        # 1400083c4 <__imp__crt_atexit>
   1400028ae:	90                   	nop
   1400028af:	90                   	nop

00000001400028b0 <_exit>:
   1400028b0:	ff 25 16 5b 00 00    	jmp    *0x5b16(%rip)        # 1400083cc <__imp__exit>
   1400028b6:	90                   	nop
   1400028b7:	90                   	nop

00000001400028b8 <_initialize_narrow_environment>:
   1400028b8:	ff 25 16 5b 00 00    	jmp    *0x5b16(%rip)        # 1400083d4 <__imp__initialize_narrow_environment>
   1400028be:	90                   	nop
   1400028bf:	90                   	nop

00000001400028c0 <_initialize_wide_environment>:
   1400028c0:	ff 25 16 5b 00 00    	jmp    *0x5b16(%rip)        # 1400083dc <__imp__initialize_wide_environment>
   1400028c6:	90                   	nop
   1400028c7:	90                   	nop

00000001400028c8 <_initterm>:
   1400028c8:	ff 25 16 5b 00 00    	jmp    *0x5b16(%rip)        # 1400083e4 <__imp__initterm>
   1400028ce:	90                   	nop
   1400028cf:	90                   	nop

00000001400028d0 <__set_app_type>:
   1400028d0:	ff 25 16 5b 00 00    	jmp    *0x5b16(%rip)        # 1400083ec <__imp___set_app_type>
   1400028d6:	90                   	nop
   1400028d7:	90                   	nop

00000001400028d8 <_set_invalid_parameter_handler>:
   1400028d8:	ff 25 16 5b 00 00    	jmp    *0x5b16(%rip)        # 1400083f4 <__imp__set_invalid_parameter_handler>
   1400028de:	90                   	nop
   1400028df:	90                   	nop

00000001400028e0 <abort>:
   1400028e0:	ff 25 16 5b 00 00    	jmp    *0x5b16(%rip)        # 1400083fc <__imp_abort>
   1400028e6:	90                   	nop
   1400028e7:	90                   	nop

00000001400028e8 <exit>:
   1400028e8:	ff 25 16 5b 00 00    	jmp    *0x5b16(%rip)        # 140008404 <__imp_exit>
   1400028ee:	90                   	nop
   1400028ef:	90                   	nop

00000001400028f0 <signal>:
   1400028f0:	ff 25 16 5b 00 00    	jmp    *0x5b16(%rip)        # 14000840c <__imp_signal>
   1400028f6:	90                   	nop
   1400028f7:	90                   	nop
   1400028f8:	0f 1f 84 00 00 00 00 	nopl   0x0(%rax,%rax,1)
   1400028ff:	00 

0000000140002900 <__C_specific_handler>:
   140002900:	ff 25 6e 5a 00 00    	jmp    *0x5a6e(%rip)        # 140008374 <__imp___C_specific_handler>
   140002906:	90                   	nop
   140002907:	90                   	nop

0000000140002908 <memcpy>:
   140002908:	ff 25 6e 5a 00 00    	jmp    *0x5a6e(%rip)        # 14000837c <__imp_memcpy>
   14000290e:	90                   	nop
   14000290f:	90                   	nop

0000000140002910 <__setusermatherr>:
   140002910:	ff 25 4e 5a 00 00    	jmp    *0x5a4e(%rip)        # 140008364 <__imp___setusermatherr>
   140002916:	90                   	nop
   140002917:	90                   	nop
   140002918:	0f 1f 84 00 00 00 00 	nopl   0x0(%rax,%rax,1)
   14000291f:	00 

0000000140002920 <_set_new_mode>:
   140002920:	ff 25 16 5a 00 00    	jmp    *0x5a16(%rip)        # 14000833c <__imp__set_new_mode>
   140002926:	90                   	nop
   140002927:	90                   	nop

0000000140002928 <calloc>:
   140002928:	ff 25 16 5a 00 00    	jmp    *0x5a16(%rip)        # 140008344 <__imp_calloc>
   14000292e:	90                   	nop
   14000292f:	90                   	nop

0000000140002930 <free>:
   140002930:	ff 25 16 5a 00 00    	jmp    *0x5a16(%rip)        # 14000834c <__imp_free>
   140002936:	90                   	nop
   140002937:	90                   	nop

0000000140002938 <malloc>:
   140002938:	ff 25 16 5a 00 00    	jmp    *0x5a16(%rip)        # 140008354 <__imp_malloc>
   14000293e:	90                   	nop
   14000293f:	90                   	nop

0000000140002940 <__p__environ>:
   140002940:	ff 25 de 59 00 00    	jmp    *0x59de(%rip)        # 140008324 <__imp___p__environ>
   140002946:	90                   	nop
   140002947:	90                   	nop

0000000140002948 <__p__wenviron>:
   140002948:	ff 25 de 59 00 00    	jmp    *0x59de(%rip)        # 14000832c <__imp___p__wenviron>
   14000294e:	90                   	nop
   14000294f:	90                   	nop

0000000140002950 <VirtualQuery>:
   140002950:	ff 25 be 59 00 00    	jmp    *0x59be(%rip)        # 140008314 <__imp_VirtualQuery>
   140002956:	90                   	nop
   140002957:	90                   	nop

0000000140002958 <VirtualProtect>:
   140002958:	ff 25 ae 59 00 00    	jmp    *0x59ae(%rip)        # 14000830c <__imp_VirtualProtect>
   14000295e:	90                   	nop
   14000295f:	90                   	nop

0000000140002960 <TlsGetValue>:
   140002960:	ff 25 9e 59 00 00    	jmp    *0x599e(%rip)        # 140008304 <__imp_TlsGetValue>
   140002966:	90                   	nop
   140002967:	90                   	nop

0000000140002968 <Sleep>:
   140002968:	ff 25 8e 59 00 00    	jmp    *0x598e(%rip)        # 1400082fc <__imp_Sleep>
   14000296e:	90                   	nop
   14000296f:	90                   	nop

0000000140002970 <SetUnhandledExceptionFilter>:
   140002970:	ff 25 7e 59 00 00    	jmp    *0x597e(%rip)        # 1400082f4 <__imp_SetUnhandledExceptionFilter>
   140002976:	90                   	nop
   140002977:	90                   	nop

0000000140002978 <LeaveCriticalSection>:
   140002978:	ff 25 6e 59 00 00    	jmp    *0x596e(%rip)        # 1400082ec <__imp_LeaveCriticalSection>
   14000297e:	90                   	nop
   14000297f:	90                   	nop

0000000140002980 <InitializeCriticalSection>:
   140002980:	ff 25 5e 59 00 00    	jmp    *0x595e(%rip)        # 1400082e4 <__imp_InitializeCriticalSection>
   140002986:	90                   	nop
   140002987:	90                   	nop

0000000140002988 <GetLastError>:
   140002988:	ff 25 4e 59 00 00    	jmp    *0x594e(%rip)        # 1400082dc <__imp_GetLastError>
   14000298e:	90                   	nop
   14000298f:	90                   	nop

0000000140002990 <EnterCriticalSection>:
   140002990:	ff 25 3e 59 00 00    	jmp    *0x593e(%rip)        # 1400082d4 <__imp_EnterCriticalSection>
   140002996:	90                   	nop
   140002997:	90                   	nop

0000000140002998 <DeleteCriticalSection>:
   140002998:	ff 25 2e 59 00 00    	jmp    *0x592e(%rip)        # 1400082cc <__IAT_start__>
   14000299e:	90                   	nop
   14000299f:	90                   	nop

00000001400029a0 <register_frame_ctor>:
   1400029a0:	e9 8b ea ff ff       	jmp    140001430 <__gcc_register_frame>
   1400029a5:	90                   	nop
   1400029a6:	90                   	nop
   1400029a7:	90                   	nop
   1400029a8:	90                   	nop
   1400029a9:	90                   	nop
   1400029aa:	90                   	nop
   1400029ab:	90                   	nop
   1400029ac:	90                   	nop
   1400029ad:	90                   	nop
   1400029ae:	90                   	nop
   1400029af:	90                   	nop

00000001400029b0 <__CTOR_LIST__>:
   1400029b0:	ff                   	(bad)
   1400029b1:	ff                   	(bad)
   1400029b2:	ff                   	(bad)
   1400029b3:	ff                   	(bad)
   1400029b4:	ff                   	(bad)
   1400029b5:	ff                   	(bad)
   1400029b6:	ff                   	(bad)
   1400029b7:	ff                   	.byte 0xff

00000001400029b8 <.ctors.65535>:
   1400029b8:	a0 29 00 40 01 00 00 	movabs 0x1400029,%al
   1400029bf:	00 00 
   1400029c1:	00 00                	add    %al,(%rax)
   1400029c3:	00 00                	add    %al,(%rax)
   1400029c5:	00 00                	add    %al,(%rax)
	...

00000001400029c8 <__DTOR_LIST__>:
   1400029c8:	ff                   	(bad)
   1400029c9:	ff                   	(bad)
   1400029ca:	ff                   	(bad)
   1400029cb:	ff                   	(bad)
   1400029cc:	ff                   	(bad)
   1400029cd:	ff                   	(bad)
   1400029ce:	ff                   	(bad)
   1400029cf:	ff 00                	incl   (%rax)
   1400029d1:	00 00                	add    %al,(%rax)
   1400029d3:	00 00                	add    %al,(%rax)
   1400029d5:	00 00                	add    %al,(%rax)
	...
